Certificate:
    Data:
        Version: 3 (0x2)
        Serial Number: 306714174 (0x1248163e)
        Signature Algorithm: sha256WithRSAEncryption
        Issuer: CN=CA1_sha256_4096_65537_v3_ca
        Validity
            Not Before: Nov  6 11:26:39 2023 GMT
            Not After : Nov  1 11:26:39 2043 GMT
        Subject: CN=SRK1_sha256_4096_65537_v3_ca
        Subject Public Key Info:
            Public Key Algorithm: rsaEncryption
                Public-Key: (4096 bit)
                Modulus:
                    00:c1:99:81:cd:8d:d5:84:25:2f:03:78:61:cb:32:
                    2a:e0:a0:ed:27:8b:dc:e6:60:60:ed:44:c4:3d:9c:
                    20:42:a4:f0:33:36:3c:97:34:f8:ce:05:9f:eb:12:
                    4c:5f:a2:ba:ff:a0:63:d4:38:46:f0:f2:8e:fe:d5:
                    54:31:5b:ff:4e:0d:3d:9f:fa:c2:8e:97:cf:ea:1a:
                    e2:f2:1a:6e:0f:01:31:d7:33:2c:1a:be:9d:72:26:
                    7c:cc:28:d8:ea:8e:13:df:0a:88:7c:8b:66:a6:b2:
                    76:6f:79:2c:c6:9e:df:4d:87:fe:f4:0a:74:40:4f:
                    59:69:a5:23:e4:43:fb:56:99:b5:bc:05:61:5d:74:
                    8d:a4:2e:cf:4b:bf:ed:cc:c8:58:09:b4:92:6f:06:
                    28:99:ef:ad:d8:dd:23:30:c6:fc:6f:eb:86:5e:41:
                    ae:ce:44:8c:24:f9:26:2c:28:05:d7:bb:f7:26:59:
                    6f:38:a7:11:03:51:5f:b2:6b:b1:c9:ab:10:60:02:
                    fb:77:d6:29:b5:dc:ab:f1:c4:b6:5a:b3:dd:a0:8a:
                    09:f7:b8:34:9c:80:05:85:c7:d3:52:a9:c5:47:51:
                    c1:96:14:f9:73:f9:ab:4a:5a:30:51:23:ea:be:9b:
                    81:8e:70:fd:f9:16:20:30:6b:41:41:81:0f:e4:8f:
                    0d:1b:f0:07:3f:20:34:67:9a:f8:39:7d:2c:56:07:
                    f5:b7:86:3a:38:12:36:7a:21:61:42:a2:e6:a3:a1:
                    27:41:89:4c:59:31:7f:b2:44:ef:00:a0:fd:17:ee:
                    22:fb:bf:99:f8:de:e8:ba:6a:9f:a8:16:29:7c:c6:
                    72:d2:d6:f8:80:63:9e:d2:12:0e:0b:17:ef:93:37:
                    18:03:6e:48:20:cd:c3:8c:7c:f3:2f:90:93:76:16:
                    11:87:10:67:b4:d2:1b:eb:e2:5e:ed:e2:12:2c:c4:
                    36:f3:ba:86:1c:47:8e:fa:27:05:2b:53:0a:d9:3c:
                    bc:65:7f:0b:8b:a9:b7:78:b1:45:7c:b3:a9:0b:7d:
                    a8:d1:79:a5:78:aa:0f:60:64:91:5d:8e:71:b7:80:
                    dd:f0:51:48:9a:e2:20:b4:5f:d1:09:56:fd:2d:5e:
                    d2:10:b4:16:12:2f:66:d7:77:e5:5c:8a:89:e8:cc:
                    2c:9d:12:98:82:d2:42:cb:bf:67:36:39:fe:67:fb:
                    19:eb:8e:08:a2:58:87:dc:56:59:c9:7b:94:c1:5a:
                    da:cc:19:07:a3:63:2a:a3:ab:60:88:e9:e9:e7:1e:
                    a6:77:13:2a:3d:25:1d:7b:ba:b9:df:d0:dd:db:34:
                    e7:97:31:11:7e:26:1e:44:6c:a9:fa:3c:24:af:1f:
                    45:ba:3b
                Exponent: 65537 (0x10001)
        X509v3 extensions:
            X509v3 Subject Key Identifier: 
                04:CA:AD:23:57:E7:9D:33:45:C7:A6:F4:7A:93:BA:E4:E6:49:DF:96
            X509v3 Authority Key Identifier: 
                keyid:2F:08:F9:7D:FC:8D:28:38:51:CB:92:B1:29:F1:A7:3D:C9:A3:6E:2F
                DirName:/CN=CA1_sha256_4096_65537_v3_ca
                serial:69:9B:DF:99:0B:09:8A:5B:61:0D:2E:DE:F8:1C:A4:42:70:96:71:B5
            X509v3 Basic Constraints: critical
                CA:TRUE
            X509v3 Key Usage: 
                Certificate Sign
    Signature Algorithm: sha256WithRSAEncryption
    Signature Value:
        56:b7:5a:aa:07:6d:15:dd:70:3a:3f:d8:d4:43:56:d5:05:4d:
        c9:8d:f1:d0:07:c2:4e:39:ef:00:c0:de:ce:f0:04:77:49:93:
        78:9b:09:90:ae:67:2f:09:76:98:71:96:0d:92:d2:88:18:e0:
        23:cd:00:f6:0e:7b:41:04:32:98:4b:e2:f2:6e:3a:f2:d0:e5:
        b2:41:24:e6:82:b0:b8:51:a3:79:98:9c:eb:1c:e2:7d:79:6c:
        d7:44:ab:d3:cf:68:be:01:52:15:3d:3f:38:dc:b6:80:95:44:
        95:da:ef:9a:b5:97:34:e7:62:d0:d8:29:d0:c2:ee:9a:98:0a:
        61:57:48:07:40:40:53:35:61:be:3e:bc:f6:e2:c3:58:30:4b:
        b4:51:26:a9:61:63:f8:0f:d4:38:c2:7a:97:d9:55:aa:33:13:
        92:ea:5d:c7:cb:8b:92:ac:8e:20:67:e8:e0:de:02:67:1c:4a:
        d5:07:00:24:df:eb:9b:5c:7e:d3:9d:44:bd:10:ac:df:7f:88:
        f4:2c:eb:c0:c7:76:fa:55:81:ca:6c:4d:b0:d1:e9:b2:fd:31:
        d3:50:ce:0a:f9:8c:5d:64:8c:21:53:e6:b6:17:31:8e:41:44:
        7c:3e:db:f6:81:b5:03:a3:cb:1b:4c:67:52:78:67:2a:79:b8:
        8a:27:5c:ea:2b:d6:45:af:d4:4a:eb:59:5e:99:a1:31:cf:01:
        0c:35:eb:49:d4:e8:78:83:36:df:e7:70:ab:68:ba:12:af:09:
        ce:3e:f9:e3:5c:e5:df:78:1c:f7:1c:41:a0:0c:5e:11:df:74:
        6f:20:c4:b4:66:cf:61:f5:50:83:7e:cc:54:df:5f:b8:ef:f6:
        94:4e:13:e1:40:dd:7a:48:cb:03:10:2a:4f:7d:5a:da:70:35:
        1d:9b:79:ac:38:c6:3b:6f:cd:29:f0:9f:90:ac:74:86:3e:67:
        53:30:6d:ae:aa:0d:2e:c0:24:39:0f:ca:03:95:62:e8:6c:29:
        fd:94:2e:20:0f:f5:33:08:08:d3:c0:5f:3e:1a:dd:f5:c7:38:
        41:5a:7c:3f:e9:d0:12:3f:f4:ed:ed:1e:26:f8:0e:44:f6:04:
        97:73:6b:8e:c6:30:6b:04:08:f7:2f:ae:14:77:57:0f:43:4f:
        4b:46:cb:7c:be:69:d9:cf:70:08:a0:21:79:74:50:c9:21:9d:
        8f:30:4f:f4:a3:7d:c9:ac:c1:2d:ec:d9:ee:77:06:97:17:b2:
        3d:e6:c6:21:6d:ae:11:a2:44:84:f0:d3:4d:23:ab:32:37:da:
        0a:58:e9:4f:32:74:9d:aa:9b:bb:07:e3:e0:b7:46:c6:94:89:
        3f:ca:cb:6e:bb:cd:ea:77
-----BEGIN CERTIFICATE-----
MIIFbzCCA1egAwIBAgIEEkgWPjANBgkqhkiG9w0BAQsFADAmMSQwIgYDVQQDFBtD
QTFfc2hhMjU2XzQwOTZfNjU1MzdfdjNfY2EwHhcNMjMxMTA2MTEyNjM5WhcNNDMx
MTAxMTEyNjM5WjAnMSUwIwYDVQQDDBxTUksxX3NoYTI1Nl80MDk2XzY1NTM3X3Yz
X2NhMIICIjANBgkqhkiG9w0BAQEFAAOCAg8AMIICCgKCAgEAwZmBzY3VhCUvA3hh
yzIq4KDtJ4vc5mBg7UTEPZwgQqTwMzY8lzT4zgWf6xJMX6K6/6Bj1DhG8PKO/tVU
MVv/Tg09n/rCjpfP6hri8hpuDwEx1zMsGr6dciZ8zCjY6o4T3wqIfItmprJ2b3ks
xp7fTYf+9Ap0QE9ZaaUj5EP7Vpm1vAVhXXSNpC7PS7/tzMhYCbSSbwYome+t2N0j
MMb8b+uGXkGuzkSMJPkmLCgF17v3JllvOKcRA1FfsmuxyasQYAL7d9Yptdyr8cS2
WrPdoIoJ97g0nIAFhcfTUqnFR1HBlhT5c/mrSlowUSPqvpuBjnD9+RYgMGtBQYEP
5I8NG/AHPyA0Z5r4OX0sVgf1t4Y6OBI2eiFhQqLmo6EnQYlMWTF/skTvAKD9F+4i
+7+Z+N7oumqfqBYpfMZy0tb4gGOe0hIOCxfvkzcYA25IIM3DjHzzL5CTdhYRhxBn
tNIb6+Je7eISLMQ287qGHEeO+icFK1MK2Ty8ZX8Li6m3eLFFfLOpC32o0XmleKoP
YGSRXY5xt4Dd8FFImuIgtF/RCVb9LV7SELQWEi9m13flXIqJ6MwsnRKYgtJCy79n
Njn+Z/sZ644IoliH3FZZyXuUwVrazBkHo2Mqo6tgiOnp5x6mdxMqPSUde7q539Dd
2zTnlzERfiYeRGyp+jwkrx9FujsCAwEAAaOBozCBoDAdBgNVHQ4EFgQUBMqtI1fn
nTNFx6b0epO65OZJ35YwYQYDVR0jBFowWIAULwj5ffyNKDhRy5KxKfGnPcmjbi+h
KqQoMCYxJDAiBgNVBAMUG0NBMV9zaGEyNTZfNDA5Nl82NTUzN192M19jYYIUaZvf
mQsJilthDS7e+BykQnCWcbUwDwYDVR0TAQH/BAUwAwEB/zALBgNVHQ8EBAMCAgQw
DQYJKoZIhvcNAQELBQADggIBAFa3WqoHbRXdcDo/2NRDVtUFTcmN8dAHwk457wDA
3s7wBHdJk3ibCZCuZy8Jdphxlg2S0ogY4CPNAPYOe0EEMphL4vJuOvLQ5bJBJOaC
sLhRo3mYnOsc4n15bNdEq9PPaL4BUhU9PzjctoCVRJXa75q1lzTnYtDYKdDC7pqY
CmFXSAdAQFM1Yb4+vPbiw1gwS7RRJqlhY/gP1DjCepfZVaozE5LqXcfLi5KsjiBn
6ODeAmccStUHACTf65tcftOdRL0QrN9/iPQs68DHdvpVgcpsTbDR6bL9MdNQzgr5
jF1kjCFT5rYXMY5BRHw+2/aBtQOjyxtMZ1J4Zyp5uIonXOor1kWv1ErrWV6ZoTHP
AQw160nU6HiDNt/ncKtouhKvCc4++eNc5d94HPccQaAMXhHfdG8gxLRmz2H1UIN+
zFTfX7jv9pROE+FA3XpIywMQKk99WtpwNR2beaw4xjtvzSnwn5CsdIY+Z1Mwba6q
DS7AJDkPygOVYuhsKf2ULiAP9TMICNPAXz4a3fXHOEFafD/p0BI/9O3tHib4DkT2
BJdza47GMGsECPcvrhR3Vw9DT0tGy3y+adnPcAigIXl0UMkhnY8wT/SjfcmswS3s
2e53BpcXsj3mxiFtrhGiRITw000jqzI32gpY6U8ydJ2qm7sH4+C3RsaUiT/Ky267
zep3
-----END CERTIFICATE-----
