Certificate:
    Data:
        Version: 3 (0x2)
        Serial Number: 306714180 (0x12481644)
        Signature Algorithm: sha256WithRSAEncryption
        Issuer: CN=CA1_sha256_4096_65537_v3_ca
        Validity
            Not Before: Nov  6 11:26:51 2023 GMT
            Not After : Nov  1 11:26:51 2043 GMT
        Subject: CN=SRK3_sha256_4096_65537_v3_ca
        Subject Public Key Info:
            Public Key Algorithm: rsaEncryption
                Public-Key: (4096 bit)
                Modulus:
                    00:bb:5a:2c:63:13:b3:a4:61:ea:c6:3c:c1:c7:9f:
                    70:d9:a2:b7:85:b9:8b:1b:c9:26:89:96:35:b0:7e:
                    26:6e:9b:85:b3:6e:60:60:0c:3f:34:67:50:1a:b6:
                    64:06:e7:3f:30:2d:aa:7e:80:a2:01:27:79:45:c2:
                    78:26:2d:b7:0f:7b:8d:be:8e:16:16:72:7c:33:f8:
                    98:e6:48:27:9e:66:6c:a3:59:89:5a:d9:5d:55:3b:
                    08:11:32:92:23:81:76:e8:14:48:5e:ec:be:8d:b6:
                    c8:83:cb:2d:de:26:69:0c:00:ea:fa:5f:7f:16:6a:
                    0d:68:4d:4c:e6:35:bd:73:b2:7a:f0:2d:9d:1e:2a:
                    7c:fb:b1:af:d7:ee:9a:d3:79:ec:60:4e:2f:89:78:
                    02:a3:14:21:bc:1e:5a:ad:50:50:7e:e3:53:7b:71:
                    de:ef:b4:7a:d6:7b:db:35:48:f5:e2:22:8f:aa:38:
                    e3:26:33:eb:be:60:86:30:50:d6:b8:38:b8:a3:82:
                    12:9b:64:db:3a:8d:8f:a7:d1:95:17:b6:20:93:d1:
                    80:87:bf:c1:6d:f9:e3:86:4e:b4:d5:bc:e1:2e:8e:
                    f8:a0:83:b2:8b:db:62:dd:30:91:8f:70:89:56:ef:
                    24:c2:a5:4a:2c:60:3c:16:dc:97:77:11:a0:49:50:
                    68:ce:4f:f0:cd:ef:80:a0:77:3c:2b:f8:cd:78:44:
                    ba:d1:5b:ec:f1:f4:ea:4e:0e:6f:6e:e2:8d:47:4c:
                    e5:0c:d6:96:07:8c:56:8e:08:d5:5f:a5:1f:58:a5:
                    ad:f0:5b:18:33:ff:c0:89:85:59:11:e5:02:aa:d1:
                    34:e2:91:a8:a8:26:05:85:9c:d4:26:8b:be:07:35:
                    be:e4:d6:d0:78:f8:cd:0f:fa:9c:35:01:d2:5c:b3:
                    19:4c:da:18:81:e0:39:87:d8:bb:d8:0d:69:98:2e:
                    e9:36:73:3e:84:4a:cc:2c:95:b3:85:f8:a7:40:fd:
                    73:5c:57:ef:fe:c3:15:cb:2b:28:43:32:d0:1a:2d:
                    62:e2:db:b7:2f:12:f1:b7:73:c6:87:1b:6c:5f:c7:
                    3f:14:1c:63:57:5f:76:12:85:7d:a7:e2:dd:db:4d:
                    38:7e:23:91:c2:86:7b:fc:d0:fe:c5:0a:32:d9:3f:
                    83:d6:9a:b0:36:0e:0c:38:ed:91:92:c6:06:52:63:
                    d2:a7:f8:96:7e:0d:76:a4:2f:13:3d:94:1f:01:98:
                    5d:66:77:f5:ab:18:6f:9e:c0:35:81:db:24:88:55:
                    13:29:c9:af:0f:c7:39:e1:a5:92:e3:c6:32:58:ce:
                    6b:a8:fc:0d:d2:85:85:e2:61:00:0f:e0:67:e4:5f:
                    8e:9b:61
                Exponent: 65537 (0x10001)
        X509v3 extensions:
            X509v3 Subject Key Identifier: 
                AC:0B:FF:B0:80:92:08:B5:8E:BC:CE:25:46:8B:04:CA:45:33:B3:6E
            X509v3 Authority Key Identifier: 
                keyid:2F:08:F9:7D:FC:8D:28:38:51:CB:92:B1:29:F1:A7:3D:C9:A3:6E:2F
                DirName:/CN=CA1_sha256_4096_65537_v3_ca
                serial:69:9B:DF:99:0B:09:8A:5B:61:0D:2E:DE:F8:1C:A4:42:70:96:71:B5
            X509v3 Basic Constraints: critical
                CA:TRUE
            X509v3 Key Usage: 
                Certificate Sign
    Signature Algorithm: sha256WithRSAEncryption
    Signature Value:
        2c:4b:c8:a9:2b:a0:c7:d3:c7:4e:90:9d:a3:8f:3b:5e:c3:9a:
        44:e0:9d:16:e5:ce:fe:c1:8c:bb:ec:a4:74:f1:e5:b4:fc:9b:
        7e:bd:c3:16:70:cd:8e:82:71:d9:45:b9:7a:e3:f5:52:28:03:
        0d:39:61:0b:e8:71:c6:01:05:fa:98:5d:98:50:f2:b1:d0:d7:
        98:40:8d:92:27:6f:19:17:b9:2f:a0:79:fe:8b:53:56:15:49:
        00:21:9d:80:93:b6:09:e4:7e:b7:3b:0a:25:85:8b:12:de:b9:
        19:eb:2b:89:db:81:64:9c:cb:2b:93:f3:75:3f:ad:ea:5e:a3:
        65:15:d8:e7:01:30:bc:1c:3f:40:2a:95:73:29:3b:ad:34:3a:
        1a:a0:fb:c4:6e:27:08:62:6d:03:73:52:a1:7b:ee:6b:33:93:
        ff:9c:5b:e7:ca:7f:ec:a6:39:bf:c5:4a:26:c2:a6:7f:54:e8:
        72:df:59:cb:fe:37:07:8f:71:46:5a:4d:85:30:31:97:9e:22:
        73:8c:35:61:9c:43:93:d3:16:85:d8:10:64:50:02:f7:a7:b2:
        e7:19:60:62:96:a0:f5:ea:87:75:06:64:2d:5c:12:a8:ff:fa:
        bc:d8:5b:48:02:7e:ab:33:2b:52:40:1b:c9:66:a4:f1:e1:31:
        e4:7d:cc:26:8a:c0:7b:56:fb:ab:9b:28:86:b9:be:88:03:76:
        90:53:b4:59:7c:69:83:63:8c:b0:14:28:9e:30:db:68:5a:12:
        95:e0:5e:40:c0:5e:bd:67:cb:bc:cc:00:84:a9:ec:58:0f:4b:
        cf:ad:5a:10:32:f7:a1:e1:03:4e:85:37:30:58:85:bd:15:5a:
        eb:2a:13:f6:12:bb:82:c8:b0:bc:e3:a5:98:1a:fe:99:44:11:
        dc:bc:9f:85:57:ca:7b:92:2f:1d:0e:58:da:93:cf:dc:ae:cb:
        d1:2f:e0:f6:4c:ad:a2:30:d8:02:8d:61:29:41:a5:a7:b5:98:
        6a:db:3e:6c:91:47:99:e0:94:51:4e:3b:d1:5b:e7:4b:6b:94:
        d6:a8:74:4d:3c:87:99:33:eb:dd:aa:11:05:6b:bd:a6:e7:b3:
        20:55:89:ea:50:e1:ce:ca:9f:94:84:01:a6:b7:c3:bc:93:08:
        6d:5f:d2:07:69:da:2d:cb:90:b6:53:01:81:9b:18:83:7f:60:
        7c:8b:e6:b4:92:5b:12:69:44:f0:f4:02:7f:88:e5:dd:4e:31:
        7b:47:5b:78:21:15:fd:06:83:bb:d1:0a:1c:f6:c4:19:42:78:
        93:d2:b2:b2:82:4e:ab:df:9d:82:e9:8e:1c:1c:30:dc:93:57:
        95:8e:d3:52:3d:e8:1c:f3
-----BEGIN CERTIFICATE-----
MIIFbzCCA1egAwIBAgIEEkgWRDANBgkqhkiG9w0BAQsFADAmMSQwIgYDVQQDFBtD
QTFfc2hhMjU2XzQwOTZfNjU1MzdfdjNfY2EwHhcNMjMxMTA2MTEyNjUxWhcNNDMx
MTAxMTEyNjUxWjAnMSUwIwYDVQQDDBxTUkszX3NoYTI1Nl80MDk2XzY1NTM3X3Yz
X2NhMIICIjANBgkqhkiG9w0BAQEFAAOCAg8AMIICCgKCAgEAu1osYxOzpGHqxjzB
x59w2aK3hbmLG8kmiZY1sH4mbpuFs25gYAw/NGdQGrZkBuc/MC2qfoCiASd5RcJ4
Ji23D3uNvo4WFnJ8M/iY5kgnnmZso1mJWtldVTsIETKSI4F26BRIXuy+jbbIg8st
3iZpDADq+l9/FmoNaE1M5jW9c7J68C2dHip8+7Gv1+6a03nsYE4viXgCoxQhvB5a
rVBQfuNTe3He77R61nvbNUj14iKPqjjjJjPrvmCGMFDWuDi4o4ISm2TbOo2Pp9GV
F7Ygk9GAh7/Bbfnjhk601bzhLo74oIOyi9ti3TCRj3CJVu8kwqVKLGA8FtyXdxGg
SVBozk/wze+AoHc8K/jNeES60Vvs8fTqTg5vbuKNR0zlDNaWB4xWjgjVX6UfWKWt
8FsYM//AiYVZEeUCqtE04pGoqCYFhZzUJou+BzW+5NbQePjND/qcNQHSXLMZTNoY
geA5h9i72A1pmC7pNnM+hErMLJWzhfinQP1zXFfv/sMVyysoQzLQGi1i4tu3LxLx
t3PGhxtsX8c/FBxjV192EoV9p+Ld2004fiORwoZ7/ND+xQoy2T+D1pqwNg4MOO2R
ksYGUmPSp/iWfg12pC8TPZQfAZhdZnf1qxhvnsA1gdskiFUTKcmvD8c54aWS48Yy
WM5rqPwN0oWF4mEAD+Bn5F+Om2ECAwEAAaOBozCBoDAdBgNVHQ4EFgQUrAv/sICS
CLWOvM4lRosEykUzs24wYQYDVR0jBFowWIAULwj5ffyNKDhRy5KxKfGnPcmjbi+h
KqQoMCYxJDAiBgNVBAMUG0NBMV9zaGEyNTZfNDA5Nl82NTUzN192M19jYYIUaZvf
mQsJilthDS7e+BykQnCWcbUwDwYDVR0TAQH/BAUwAwEB/zALBgNVHQ8EBAMCAgQw
DQYJKoZIhvcNAQELBQADggIBACxLyKkroMfTx06QnaOPO17DmkTgnRblzv7BjLvs
pHTx5bT8m369wxZwzY6CcdlFuXrj9VIoAw05YQvoccYBBfqYXZhQ8rHQ15hAjZIn
bxkXuS+gef6LU1YVSQAhnYCTtgnkfrc7CiWFixLeuRnrK4nbgWScyyuT83U/repe
o2UV2OcBMLwcP0AqlXMpO600Ohqg+8RuJwhibQNzUqF77mszk/+cW+fKf+ymOb/F
SibCpn9U6HLfWcv+NwePcUZaTYUwMZeeInOMNWGcQ5PTFoXYEGRQAvensucZYGKW
oPXqh3UGZC1cEqj/+rzYW0gCfqszK1JAG8lmpPHhMeR9zCaKwHtW+6ubKIa5vogD
dpBTtFl8aYNjjLAUKJ4w22haEpXgXkDAXr1ny7zMAISp7FgPS8+tWhAy96HhA06F
NzBYhb0VWusqE/YSu4LIsLzjpZga/plEEdy8n4VXynuSLx0OWNqTz9yuy9Ev4PZM
raIw2AKNYSlBpae1mGrbPmyRR5nglFFOO9Fb50trlNaodE08h5kz692qEQVrvabn
syBViepQ4c7Kn5SEAaa3w7yTCG1f0gdp2i3LkLZTAYGbGIN/YHyL5rSSWxJpRPD0
An+I5d1OMXtHW3ghFf0Gg7vRChz2xBlCeJPSsrKCTqvfnYLpjhwcMNyTV5WO01I9
6Bzz
-----END CERTIFICATE-----
