Certificate:
    Data:
        Version: 3 (0x2)
        Serial Number: 306714179 (0x12481643)
        Signature Algorithm: sha256WithRSAEncryption
        Issuer: CN=SRK2_sha256_4096_65537_v3_ca
        Validity
            Not Before: Nov  6 11:26:49 2023 GMT
            Not After : Nov  1 11:26:49 2043 GMT
        Subject: CN=IMG2_1_sha256_4096_65537_v3_usr
        Subject Public Key Info:
            Public Key Algorithm: rsaEncryption
                Public-Key: (4096 bit)
                Modulus:
                    00:bf:80:49:5f:ac:30:b1:8f:35:06:6d:b2:7b:eb:
                    06:de:4d:bc:c5:04:7c:3f:e3:da:17:69:1b:0e:8c:
                    87:f9:4a:90:90:99:43:9e:7a:34:de:34:82:65:13:
                    4e:b5:44:d6:4a:51:93:42:9d:f1:e3:01:c8:37:d9:
                    eb:ad:4f:58:56:17:03:8a:73:34:39:e8:bc:35:94:
                    17:90:ad:73:d7:89:d3:bd:e0:a9:59:44:2f:5b:29:
                    ce:4f:de:e7:02:0d:42:ea:fa:12:a4:06:7e:36:ac:
                    7d:aa:d7:c4:ee:5f:e8:5b:4d:b6:19:b0:f5:ad:2c:
                    55:89:6b:b6:84:19:89:42:ee:a9:1f:74:9d:88:8e:
                    4f:98:0e:31:53:b7:f2:1d:c7:5b:17:a7:09:c8:95:
                    29:e7:06:88:af:d6:a0:df:09:10:d2:21:47:56:a7:
                    1b:66:c7:0a:44:ba:0b:20:e5:f1:c9:4b:01:1e:5e:
                    a9:60:69:c4:bb:f0:53:d1:ba:fa:5f:5c:e5:90:6c:
                    53:de:b3:a6:eb:a1:d7:d4:10:d9:b1:dd:04:f2:27:
                    8d:01:85:35:d8:a9:50:24:e5:ca:0d:3b:20:2d:7d:
                    4c:1c:19:2c:eb:5f:80:f4:1d:31:91:8b:a3:b1:c7:
                    0a:aa:95:22:aa:27:30:30:8b:c0:ac:a0:61:72:eb:
                    85:af:a2:cb:89:3e:e0:50:51:33:c9:cb:24:c3:3e:
                    27:52:e9:74:82:29:45:96:18:fb:53:56:c8:88:d1:
                    94:88:30:24:9e:6b:cf:31:77:35:bd:f7:af:ce:c1:
                    a3:0e:8e:f2:bf:9a:ea:fe:20:8b:62:80:ac:45:fc:
                    cc:92:44:a1:df:20:a9:c6:f7:3f:81:3a:ec:4d:60:
                    e4:74:ba:cc:db:2c:0e:a3:d4:86:e1:7c:8f:70:4e:
                    a8:2e:a9:ff:cf:64:6e:fb:84:ec:5b:6c:ec:2e:99:
                    45:ed:d5:5d:0a:bf:ab:93:d4:29:72:91:56:ba:c2:
                    a2:f2:f5:89:2f:72:72:d1:93:55:1e:2e:ef:36:0f:
                    80:6a:99:6d:1a:25:54:03:bb:c4:27:cc:61:f2:55:
                    55:8f:8f:1f:87:d0:92:d0:07:96:ab:f2:21:5a:09:
                    8f:7d:2b:16:05:2e:19:ed:4d:4f:3b:4d:24:cb:3f:
                    04:e7:cc:52:3e:3c:1c:00:63:a9:98:4f:41:f7:62:
                    54:92:7e:7a:0c:5f:1a:79:bc:0b:fa:e8:0b:49:ee:
                    66:aa:de:f8:c1:df:dd:c5:7c:90:40:1e:63:6f:10:
                    71:23:8c:6f:5b:62:1c:df:36:39:9f:27:dc:08:18:
                    e3:e0:d5:7a:de:3f:9b:b6:23:98:21:df:e2:0e:49:
                    19:5f:f7
                Exponent: 65537 (0x10001)
        X509v3 extensions:
            X509v3 Basic Constraints: 
                CA:FALSE
            Netscape Comment: 
                OpenSSL Generated Certificate
            X509v3 Subject Key Identifier: 
                10:89:E5:00:6C:30:D5:45:F0:77:FC:35:61:12:CA:B0:7F:D8:80:47
            X509v3 Authority Key Identifier: 
                83:3C:B3:FA:F1:37:C0:DD:33:3B:03:CB:82:2C:23:60:B0:97:EE:D9
    Signature Algorithm: sha256WithRSAEncryption
    Signature Value:
        74:ff:22:b7:68:69:bc:ec:a5:86:68:06:44:3e:91:b9:77:59:
        00:58:95:ab:33:71:2e:f3:cb:6e:d4:7a:fe:ae:6d:62:86:ef:
        20:90:83:65:8b:b0:7b:df:54:8a:fb:ca:5d:96:55:78:19:ba:
        82:c0:3d:f3:4d:62:20:79:f2:61:a2:57:b0:e3:97:80:7a:00:
        a4:7e:e4:6c:aa:59:2a:5f:ce:e9:b3:6c:6d:b3:f1:95:d0:77:
        c7:bd:6a:6e:fa:cc:d8:aa:0e:8c:b7:fa:21:99:25:ea:4e:5d:
        f8:bf:22:24:7d:34:de:85:37:f2:f2:18:4e:7c:b2:7c:85:f2:
        95:97:9a:d4:95:e8:25:4a:9a:0b:73:98:94:3b:ee:ca:d8:11:
        f5:31:d4:82:23:d0:0d:85:35:71:8c:ec:4f:e8:39:e9:60:8d:
        4e:ef:06:1d:1a:ed:57:5e:29:bb:f3:85:1b:43:2f:74:99:1f:
        40:2a:40:26:83:46:3e:c1:40:68:5b:1c:62:4c:3a:17:4b:24:
        8b:33:2d:d5:7d:5b:d1:a8:e8:92:c5:ae:bc:0f:17:ee:01:eb:
        d1:97:d3:41:37:a2:07:bd:b4:95:b9:0c:7b:43:72:f0:00:d9:
        7f:29:0e:aa:9c:e2:c5:c2:3a:86:7f:5d:d0:43:cb:6e:f5:1f:
        94:88:24:45:b3:19:22:40:c8:1c:a1:d5:54:d5:db:7b:56:c3:
        92:26:ea:a6:0c:87:03:ed:5d:d0:08:da:2d:5b:18:b5:0d:d7:
        1c:7d:30:43:d5:a5:30:f1:33:4b:51:50:18:40:b9:51:6f:fc:
        63:d0:43:59:62:e9:b8:66:fb:dd:31:da:e2:dc:99:8b:1f:ee:
        40:7d:c0:10:fe:6f:e6:a6:4a:77:4f:82:ba:e0:13:de:96:e7:
        ec:c1:d4:8e:d4:23:6d:55:14:17:b6:b2:f4:c9:82:e3:1c:9f:
        37:d6:ac:56:43:03:6a:ac:12:ff:df:88:77:ac:18:6a:d0:51:
        7d:44:65:92:b7:af:9f:b9:d5:03:a2:7b:97:d0:c0:c4:27:66:
        0d:2d:40:06:96:60:0b:fe:70:a7:67:1d:17:df:54:da:13:fa:
        db:e2:ba:c5:24:c3:2a:f3:c9:67:4b:1a:81:a8:5c:a3:54:10:
        21:ca:29:63:23:ac:d0:0d:ee:bd:f8:b3:5b:a3:c8:69:58:84:
        3e:01:f9:29:3d:3a:91:25:d5:ff:30:fe:54:35:d1:9c:e0:8f:
        dc:4a:89:55:e0:39:da:ea:4d:7c:f2:3e:71:16:0d:83:06:a9:
        dc:e2:7e:79:b1:83:71:d4:83:39:24:13:2f:40:3d:0c:9f:7b:
        0b:f2:00:66:4b:89:44:ca
-----BEGIN CERTIFICATE-----
MIIFSjCCAzKgAwIBAgIEEkgWQzANBgkqhkiG9w0BAQsFADAnMSUwIwYDVQQDDBxT
UksyX3NoYTI1Nl80MDk2XzY1NTM3X3YzX2NhMB4XDTIzMTEwNjExMjY0OVoXDTQz
MTEwMTExMjY0OVowKjEoMCYGA1UEAwwfSU1HMl8xX3NoYTI1Nl80MDk2XzY1NTM3
X3YzX3VzcjCCAiIwDQYJKoZIhvcNAQEBBQADggIPADCCAgoCggIBAL+ASV+sMLGP
NQZtsnvrBt5NvMUEfD/j2hdpGw6Mh/lKkJCZQ556NN40gmUTTrVE1kpRk0Kd8eMB
yDfZ661PWFYXA4pzNDnovDWUF5Ctc9eJ073gqVlEL1spzk/e5wINQur6EqQGfjas
farXxO5f6FtNthmw9a0sVYlrtoQZiULuqR90nYiOT5gOMVO38h3HWxenCciVKecG
iK/WoN8JENIhR1anG2bHCkS6CyDl8clLAR5eqWBpxLvwU9G6+l9c5ZBsU96zpuuh
19QQ2bHdBPInjQGFNdipUCTlyg07IC19TBwZLOtfgPQdMZGLo7HHCqqVIqonMDCL
wKygYXLrha+iy4k+4FBRM8nLJMM+J1LpdIIpRZYY+1NWyIjRlIgwJJ5rzzF3Nb33
r87Bow6O8r+a6v4gi2KArEX8zJJEod8gqcb3P4E67E1g5HS6zNssDqPUhuF8j3BO
qC6p/89kbvuE7Fts7C6ZRe3VXQq/q5PUKXKRVrrCovL1iS9yctGTVR4u7zYPgGqZ
bRolVAO7xCfMYfJVVY+PH4fQktAHlqvyIVoJj30rFgUuGe1NTztNJMs/BOfMUj48
HABjqZhPQfdiVJJ+egxfGnm8C/roC0nuZqre+MHf3cV8kEAeY28QcSOMb1tiHN82
OZ8n3AgY4+DVet4/m7YjmCHf4g5JGV/3AgMBAAGjezB5MAkGA1UdEwQCMAAwLAYJ
YIZIAYb4QgENBB8WHU9wZW5TU0wgR2VuZXJhdGVkIENlcnRpZmljYXRlMB0GA1Ud
DgQWBBQQieUAbDDVRfB3/DVhEsqwf9iARzAfBgNVHSMEGDAWgBSDPLP68TfA3TM7
A8uCLCNgsJfu2TANBgkqhkiG9w0BAQsFAAOCAgEAdP8it2hpvOylhmgGRD6RuXdZ
AFiVqzNxLvPLbtR6/q5tYobvIJCDZYuwe99UivvKXZZVeBm6gsA9801iIHnyYaJX
sOOXgHoApH7kbKpZKl/O6bNsbbPxldB3x71qbvrM2KoOjLf6IZkl6k5d+L8iJH00
3oU38vIYTnyyfIXylZea1JXoJUqaC3OYlDvuytgR9THUgiPQDYU1cYzsT+g56WCN
Tu8GHRrtV14pu/OFG0MvdJkfQCpAJoNGPsFAaFscYkw6F0skizMt1X1b0ajoksWu
vA8X7gHr0ZfTQTeiB720lbkMe0Ny8ADZfykOqpzixcI6hn9d0EPLbvUflIgkRbMZ
IkDIHKHVVNXbe1bDkibqpgyHA+1d0AjaLVsYtQ3XHH0wQ9WlMPEzS1FQGEC5UW/8
Y9BDWWLpuGb73THa4tyZix/uQH3AEP5v5qZKd0+CuuAT3pbn7MHUjtQjbVUUF7ay
9MmC4xyfN9asVkMDaqwS/9+Id6wYatBRfURlkrevn7nVA6J7l9DAxCdmDS1ABpZg
C/5wp2cdF99U2hP62+K6xSTDKvPJZ0sagahco1QQIcopYyOs0A3uvfizW6PIaViE
PgH5KT06kSXV/zD+VDXRnOCP3EqJVeA52upNfPI+cRYNgwap3OJ+ebGDcdSDOSQT
L0A9DJ97C/IAZkuJRMo=
-----END CERTIFICATE-----
