Certificate:
    Data:
        Version: 3 (0x2)
        Serial Number: 306714175 (0x1248163f)
        Signature Algorithm: sha256WithRSAEncryption
        Issuer: CN=SRK1_sha256_4096_65537_v3_ca
        Validity
            Not Before: Nov  6 11:26:40 2023 GMT
            Not After : Nov  1 11:26:40 2043 GMT
        Subject: CN=CSF1_1_sha256_4096_65537_v3_usr
        Subject Public Key Info:
            Public Key Algorithm: rsaEncryption
                Public-Key: (4096 bit)
                Modulus:
                    00:ca:c0:45:3a:19:a5:58:8b:fc:50:a1:ce:25:5b:
                    84:54:26:66:04:da:d1:3c:b5:5c:d9:29:71:ba:ef:
                    14:11:66:66:5e:0b:29:5e:a4:da:9d:61:75:5b:80:
                    87:44:34:07:de:8d:38:20:58:7c:46:27:fe:2b:36:
                    f3:5b:eb:82:be:00:c8:fe:d8:f5:f0:ca:28:a5:21:
                    ac:09:34:9f:4b:84:2d:2f:49:4a:89:3c:6d:67:db:
                    35:62:4e:92:ac:59:94:b8:87:f0:48:10:3b:2c:0a:
                    e1:de:c2:99:ac:3a:aa:df:d4:09:23:6a:5b:75:64:
                    35:52:91:2b:98:a1:3b:1c:e0:7f:85:44:11:4c:99:
                    85:cd:92:9d:b6:a3:0f:36:ee:2d:ed:25:ea:e2:b7:
                    13:a1:f0:5e:d8:27:67:2d:50:4d:e2:3c:b7:e3:6b:
                    f9:f8:77:4b:6c:c7:61:84:22:4d:0f:4e:ea:31:52:
                    58:24:66:fb:76:c0:17:f0:11:a5:03:fb:cf:71:26:
                    1c:b8:1a:3f:ec:29:3a:31:1d:f7:df:c6:87:c7:00:
                    0e:25:5c:24:59:1a:fe:e2:c4:9a:7d:42:1c:5f:e3:
                    8b:9d:81:db:28:bb:79:bf:82:a9:80:55:89:ad:a7:
                    a5:b1:73:c9:a5:4f:3f:6e:8d:2e:3a:b5:04:c0:85:
                    8c:c5:16:6f:bd:e5:27:12:74:bc:25:7b:c7:8d:53:
                    14:7f:a8:1c:cd:65:d9:46:c3:0a:65:54:85:a0:c2:
                    95:43:9e:3c:ad:fe:08:db:94:3a:d4:49:83:6e:cd:
                    ba:e5:ed:65:68:f6:2a:4d:f0:07:30:5d:43:2d:0d:
                    a9:62:9b:4f:f7:fc:58:8f:e8:4a:75:3c:d9:84:e1:
                    65:00:69:59:80:da:02:cb:f8:31:70:5b:7f:5b:8c:
                    f6:d8:67:40:5f:4f:9f:30:8d:75:5e:9a:de:c1:31:
                    99:55:27:15:9b:85:e3:cb:10:58:cb:30:02:31:c6:
                    a6:9a:bb:89:da:05:50:10:12:a3:8a:1f:d3:15:62:
                    f7:7e:b6:f7:4a:79:aa:d9:be:f3:50:25:21:28:6d:
                    51:d6:3e:82:48:21:8b:3f:4d:44:12:8b:48:40:02:
                    b6:0f:cb:4f:82:9d:9b:0e:c1:15:ee:40:de:37:fd:
                    4d:2c:80:45:40:76:6d:34:0d:59:25:4d:5a:c1:69:
                    54:cc:ff:f0:31:e3:34:27:46:71:3f:a8:33:83:c4:
                    15:77:37:c5:a7:2d:84:bb:6e:d6:c1:d6:4a:1a:31:
                    13:90:d1:d6:65:b1:c4:e2:fb:ed:0a:72:d0:0c:6b:
                    e7:8c:58:c7:8b:5a:e5:6d:ce:c5:e5:5a:19:41:a1:
                    e7:3b:33
                Exponent: 65537 (0x10001)
        X509v3 extensions:
            X509v3 Basic Constraints: 
                CA:FALSE
            Netscape Comment: 
                OpenSSL Generated Certificate
            X509v3 Subject Key Identifier: 
                3B:41:C7:EF:0A:34:DF:EC:C6:EF:92:D4:1C:18:50:EB:3C:4F:25:BF
            X509v3 Authority Key Identifier: 
                04:CA:AD:23:57:E7:9D:33:45:C7:A6:F4:7A:93:BA:E4:E6:49:DF:96
    Signature Algorithm: sha256WithRSAEncryption
    Signature Value:
        8f:78:fe:5b:0d:2a:2f:ec:3b:36:8f:be:b6:9d:2b:00:df:50:
        f6:a9:3d:30:b7:65:32:93:4e:01:13:aa:1c:80:25:e5:92:9f:
        07:84:52:20:2f:1c:b3:e7:3e:40:77:f6:e8:c0:36:4a:10:c8:
        1f:a1:37:c2:53:ee:9c:2a:85:1b:91:6e:5d:48:a4:43:ac:a7:
        89:6e:00:40:f6:1e:f1:36:59:e1:02:73:0d:a2:b7:da:8c:87:
        b0:2a:50:8b:86:31:41:bb:6f:bd:96:dc:55:2f:fc:2f:f4:4d:
        b9:ec:ba:e0:a8:59:f3:77:74:e7:24:73:5e:d7:0d:10:5d:ff:
        37:0a:5c:58:ca:11:19:24:12:1e:18:20:90:c7:cf:0e:56:21:
        06:37:2e:b3:86:a2:c5:b3:f9:97:65:f6:7c:e7:ce:63:5d:fe:
        b3:b1:73:1b:89:8f:32:5a:c3:96:fd:72:48:bc:2c:ef:7a:e1:
        0a:20:5a:57:d5:0e:3d:b6:8f:4d:21:41:4a:f8:1e:d8:11:81:
        1c:64:fb:55:d3:62:36:31:4a:44:ba:8f:89:ba:55:81:68:5a:
        ce:48:6a:bd:3c:d8:a7:fa:e5:bb:de:e4:ab:2c:61:42:5f:10:
        17:80:ab:99:4f:5f:95:46:37:6f:25:58:6e:bf:99:bb:d9:3c:
        0f:84:73:19:66:99:9e:4a:34:31:d4:ce:23:7b:d0:90:48:3e:
        87:65:a2:61:99:3d:fe:c4:fa:e8:7f:03:ec:4a:76:50:bc:68:
        d5:20:a0:4a:0c:6b:34:39:ab:67:d0:8e:03:b9:76:43:06:81:
        3b:a0:c0:7e:a1:13:b2:15:f8:46:e6:20:b3:d2:f1:3d:49:96:
        68:64:c0:ac:71:55:ac:2f:fb:77:3c:e0:f7:09:f9:29:98:f1:
        a1:cd:c0:a4:51:a6:88:31:95:2b:93:2d:38:d3:ad:c4:c0:fe:
        78:5a:09:84:51:77:90:e8:37:15:29:85:50:a6:b1:40:b6:3c:
        96:f7:4f:25:8b:7f:93:67:ce:ae:fa:60:0f:69:87:3a:43:66:
        c5:1a:86:bb:3d:b4:3d:f2:52:9a:7e:92:86:b9:96:4b:31:16:
        95:0e:fa:f0:56:3a:30:c4:6a:e1:c9:8b:cf:df:18:82:13:4d:
        8d:22:c4:11:7c:9a:c1:e7:1a:92:e2:5f:78:cf:b3:e0:82:42:
        57:ee:39:14:cf:41:05:c4:40:fc:98:f4:36:ba:58:78:03:68:
        b3:a1:f1:79:38:3c:6d:8d:17:c1:5d:56:21:00:99:52:b3:cc:
        b9:12:f2:ff:31:b4:2b:98:17:9f:b4:7f:a8:d0:71:4c:6c:76:
        ef:a2:92:f9:e6:67:8e:34
-----BEGIN CERTIFICATE-----
MIIFSjCCAzKgAwIBAgIEEkgWPzANBgkqhkiG9w0BAQsFADAnMSUwIwYDVQQDDBxT
UksxX3NoYTI1Nl80MDk2XzY1NTM3X3YzX2NhMB4XDTIzMTEwNjExMjY0MFoXDTQz
MTEwMTExMjY0MFowKjEoMCYGA1UEAwwfQ1NGMV8xX3NoYTI1Nl80MDk2XzY1NTM3
X3YzX3VzcjCCAiIwDQYJKoZIhvcNAQEBBQADggIPADCCAgoCggIBAMrARToZpViL
/FChziVbhFQmZgTa0Ty1XNkpcbrvFBFmZl4LKV6k2p1hdVuAh0Q0B96NOCBYfEYn
/is281vrgr4AyP7Y9fDKKKUhrAk0n0uELS9JSok8bWfbNWJOkqxZlLiH8EgQOywK
4d7Cmaw6qt/UCSNqW3VkNVKRK5ihOxzgf4VEEUyZhc2SnbajDzbuLe0l6uK3E6Hw
XtgnZy1QTeI8t+Nr+fh3S2zHYYQiTQ9O6jFSWCRm+3bAF/ARpQP7z3EmHLgaP+wp
OjEd99/Gh8cADiVcJFka/uLEmn1CHF/ji52B2yi7eb+CqYBVia2npbFzyaVPP26N
Ljq1BMCFjMUWb73lJxJ0vCV7x41TFH+oHM1l2UbDCmVUhaDClUOePK3+CNuUOtRJ
g27NuuXtZWj2Kk3wBzBdQy0NqWKbT/f8WI/oSnU82YThZQBpWYDaAsv4MXBbf1uM
9thnQF9PnzCNdV6a3sExmVUnFZuF48sQWMswAjHGppq7idoFUBASo4of0xVi9362
90p5qtm+81AlIShtUdY+gkghiz9NRBKLSEACtg/LT4Kdmw7BFe5A3jf9TSyARUB2
bTQNWSVNWsFpVMz/8DHjNCdGcT+oM4PEFXc3xacthLtu1sHWShoxE5DR1mWxxOL7
7Qpy0Axr54xYx4ta5W3OxeVaGUGh5zszAgMBAAGjezB5MAkGA1UdEwQCMAAwLAYJ
YIZIAYb4QgENBB8WHU9wZW5TU0wgR2VuZXJhdGVkIENlcnRpZmljYXRlMB0GA1Ud
DgQWBBQ7QcfvCjTf7MbvktQcGFDrPE8lvzAfBgNVHSMEGDAWgBQEyq0jV+edM0XH
pvR6k7rk5knfljANBgkqhkiG9w0BAQsFAAOCAgEAj3j+Ww0qL+w7No++tp0rAN9Q
9qk9MLdlMpNOAROqHIAl5ZKfB4RSIC8cs+c+QHf26MA2ShDIH6E3wlPunCqFG5Fu
XUikQ6yniW4AQPYe8TZZ4QJzDaK32oyHsCpQi4YxQbtvvZbcVS/8L/RNuey64KhZ
83d05yRzXtcNEF3/NwpcWMoRGSQSHhggkMfPDlYhBjcus4aixbP5l2X2fOfOY13+
s7FzG4mPMlrDlv1ySLws73rhCiBaV9UOPbaPTSFBSvge2BGBHGT7VdNiNjFKRLqP
ibpVgWhazkhqvTzYp/rlu97kqyxhQl8QF4CrmU9flUY3byVYbr+Zu9k8D4RzGWaZ
nko0MdTOI3vQkEg+h2WiYZk9/sT66H8D7Ep2ULxo1SCgSgxrNDmrZ9COA7l2QwaB
O6DAfqETshX4RuYgs9LxPUmWaGTArHFVrC/7dzzg9wn5KZjxoc3ApFGmiDGVK5Mt
ONOtxMD+eFoJhFF3kOg3FSmFUKaxQLY8lvdPJYt/k2fOrvpgD2mHOkNmxRqGuz20
PfJSmn6ShrmWSzEWlQ768FY6MMRq4cmLz98YghNNjSLEEXyawecakuJfeM+z4IJC
V+45FM9BBcRA/Jj0NrpYeANos6HxeTg8bY0XwV1WIQCZUrPMuRLy/zG0K5gXn7R/
qNBxTGx276KS+eZnjjQ=
-----END CERTIFICATE-----
