Certificate:
    Data:
        Version: 3 (0x2)
        Serial Number: 306714178 (0x12481642)
        Signature Algorithm: sha256WithRSAEncryption
        Issuer: CN=SRK2_sha256_4096_65537_v3_ca
        Validity
            Not Before: Nov  6 11:26:47 2023 GMT
            Not After : Nov  1 11:26:47 2043 GMT
        Subject: CN=CSF2_1_sha256_4096_65537_v3_usr
        Subject Public Key Info:
            Public Key Algorithm: rsaEncryption
                Public-Key: (4096 bit)
                Modulus:
                    00:98:c5:0e:97:4c:6c:5a:c2:d3:ea:43:c0:cb:c3:
                    34:36:eb:64:7b:7b:f0:3a:d5:75:c6:79:45:a7:9a:
                    99:f6:1f:da:13:b7:8e:0c:0c:6f:aa:f9:03:35:66:
                    22:bf:81:3c:06:b7:7c:6b:4b:81:d5:cc:d4:e6:1e:
                    15:97:22:15:28:10:8a:a8:f3:84:e9:ba:dd:7e:5c:
                    4d:b7:ac:b1:1c:be:d6:63:5e:00:f9:72:8f:ae:9a:
                    4f:92:82:e3:03:0d:48:cb:05:9d:af:62:e3:02:33:
                    eb:29:83:0c:1e:35:f6:55:c7:9d:b7:4f:27:88:17:
                    c1:09:9d:33:33:7c:df:d8:88:87:d7:71:7a:97:17:
                    17:63:31:b1:9c:01:39:65:f0:e7:5b:1e:ca:9d:48:
                    51:f4:89:4c:5e:12:fa:e8:fa:4f:2a:32:f4:e0:69:
                    c9:b7:24:a4:fb:f7:cc:7b:ba:cc:0a:4f:b4:84:8e:
                    60:cf:3d:12:df:77:45:1a:04:33:aa:33:b2:01:f2:
                    7d:b2:3b:7b:c0:c0:78:07:8e:f8:7c:50:b2:14:d4:
                    52:6e:84:ae:d0:ad:32:03:84:7c:18:8c:81:66:0d:
                    e9:40:4d:c4:15:09:56:24:7b:e8:8f:80:66:d8:b9:
                    16:15:6f:af:30:b3:5c:77:5b:ec:fd:d5:0e:4b:ef:
                    75:ee:a6:9c:3f:62:56:f1:b5:26:fb:23:0a:7c:57:
                    22:a3:3a:e1:31:ba:9f:77:71:0b:55:a0:34:18:79:
                    02:d3:7a:52:8f:b1:fc:e4:32:e9:2f:55:be:6b:f3:
                    49:ba:65:9e:87:34:b5:1c:02:b5:cc:6b:f7:f7:a3:
                    f8:de:13:5a:0e:8d:49:53:b0:46:17:d4:12:00:65:
                    e4:e7:9c:a3:ee:77:fc:42:ac:36:38:a8:38:47:35:
                    74:46:91:19:40:61:1e:b3:f9:80:94:3b:4e:df:74:
                    6a:ea:4a:85:0b:f1:41:08:a2:eb:c9:4e:f1:15:90:
                    b0:7e:23:7e:d9:e4:b9:40:7c:f6:51:61:1e:d2:7e:
                    15:3a:7c:0b:34:42:30:bb:4d:c9:af:c7:96:c3:e2:
                    0c:32:02:05:e8:3b:1d:58:1f:f5:13:d1:53:b2:ef:
                    2a:cf:c1:2d:78:bd:23:64:9c:04:aa:44:c0:91:a2:
                    e7:17:04:27:f9:94:f5:3f:7e:5a:2b:4d:66:57:61:
                    b7:3f:e9:18:78:f6:20:cd:6e:5a:da:d4:52:e8:62:
                    19:87:ad:1b:b8:bf:d5:3b:9d:3d:54:ed:de:70:57:
                    00:28:16:a6:7c:19:6e:41:d3:28:7f:2b:f9:11:1f:
                    18:3b:80:4d:bd:fa:da:4c:12:71:98:cf:f4:85:f4:
                    e4:28:6d
                Exponent: 65537 (0x10001)
        X509v3 extensions:
            X509v3 Basic Constraints: 
                CA:FALSE
            Netscape Comment: 
                OpenSSL Generated Certificate
            X509v3 Subject Key Identifier: 
                DA:59:44:E7:97:67:BE:D0:6B:DA:A8:25:D4:14:F0:D7:8B:77:33:A0
            X509v3 Authority Key Identifier: 
                83:3C:B3:FA:F1:37:C0:DD:33:3B:03:CB:82:2C:23:60:B0:97:EE:D9
    Signature Algorithm: sha256WithRSAEncryption
    Signature Value:
        5d:17:74:b7:82:3e:33:47:d7:cc:e9:b7:fd:62:23:e7:a0:57:
        1e:d5:58:51:d8:93:fb:ac:45:bb:b6:55:8b:63:36:a4:09:00:
        16:45:a5:a9:b0:3c:71:5a:08:d5:3e:fa:b9:ee:ae:f5:ca:ba:
        2b:56:c1:e3:21:e7:63:27:16:8a:33:04:ae:b1:ac:1c:dd:30:
        21:14:2f:2d:09:b9:94:fb:94:b4:c8:64:b3:f7:93:4e:78:1f:
        d3:bc:c4:08:9f:6c:e7:1b:c8:88:f4:5d:6f:51:1e:81:04:d5:
        b5:14:1d:cf:18:4a:0e:2e:b1:5e:d0:5d:76:9e:6e:89:1c:ea:
        12:73:70:6a:92:99:0d:d2:90:ae:d0:9d:d9:6d:0b:48:bb:62:
        bf:66:6a:c5:10:37:ca:b4:40:22:5d:3d:d9:7e:3d:3f:14:63:
        6d:51:40:8f:fe:96:1c:94:10:a5:e8:f4:0c:67:89:1d:06:21:
        d7:5a:73:3b:84:5a:40:ad:2f:30:83:9c:7b:f6:93:e7:93:a0:
        c7:f4:59:66:3a:19:df:db:b7:59:07:1e:d6:03:32:1d:75:77:
        33:c3:86:b2:c1:53:9a:3a:70:a9:38:93:58:99:59:95:d3:d2:
        03:a6:8b:00:45:39:bd:6e:6d:66:91:e0:be:97:4b:8d:24:b4:
        57:ba:08:32:e9:a9:78:e5:db:35:b7:82:c9:90:49:14:16:3f:
        aa:50:10:40:a7:3d:cf:0a:1b:bb:12:02:32:ea:27:04:48:7d:
        49:ff:ce:3e:e4:96:d5:86:09:d8:4b:c8:ed:b1:ae:c1:c5:4e:
        70:15:6a:34:fc:26:6e:56:30:75:5d:5a:c5:d8:d8:2f:73:74:
        f1:a4:c3:d8:a5:a5:c8:49:b3:a9:9e:34:3e:d3:81:af:cc:89:
        f6:13:0a:57:c2:2e:e4:da:89:e6:52:d0:fd:81:71:ef:2c:6d:
        38:e1:71:aa:1b:2e:02:a6:d8:98:fc:a2:90:6b:a4:a1:34:52:
        c4:09:f5:95:78:56:91:97:0a:90:88:60:4c:4b:b1:77:c9:a3:
        b5:7d:3c:36:d9:b6:7f:20:53:fb:04:d3:4b:e5:5b:b9:5c:f1:
        d1:a1:d0:6d:6c:4b:a9:24:17:5a:a3:c5:d9:b5:5c:e0:f6:aa:
        f5:c0:67:c6:4f:d0:39:5c:24:31:2a:6b:f4:4e:91:64:59:71:
        26:96:97:49:84:9f:e0:da:8c:00:11:1a:9d:da:e3:94:22:2b:
        15:e7:73:71:7e:7d:99:1f:33:e6:21:65:5b:7c:6e:67:94:88:
        d4:40:51:58:36:c7:e1:f0:31:b8:5c:3b:87:e2:d9:d6:c9:7f:
        96:7f:85:7c:ec:d2:a9:05
-----BEGIN CERTIFICATE-----
MIIFSjCCAzKgAwIBAgIEEkgWQjANBgkqhkiG9w0BAQsFADAnMSUwIwYDVQQDDBxT
UksyX3NoYTI1Nl80MDk2XzY1NTM3X3YzX2NhMB4XDTIzMTEwNjExMjY0N1oXDTQz
MTEwMTExMjY0N1owKjEoMCYGA1UEAwwfQ1NGMl8xX3NoYTI1Nl80MDk2XzY1NTM3
X3YzX3VzcjCCAiIwDQYJKoZIhvcNAQEBBQADggIPADCCAgoCggIBAJjFDpdMbFrC
0+pDwMvDNDbrZHt78DrVdcZ5RaeamfYf2hO3jgwMb6r5AzVmIr+BPAa3fGtLgdXM
1OYeFZciFSgQiqjzhOm63X5cTbessRy+1mNeAPlyj66aT5KC4wMNSMsFna9i4wIz
6ymDDB419lXHnbdPJ4gXwQmdMzN839iIh9dxepcXF2MxsZwBOWXw51seyp1IUfSJ
TF4S+uj6Tyoy9OBpybckpPv3zHu6zApPtISOYM89Et93RRoEM6ozsgHyfbI7e8DA
eAeO+HxQshTUUm6ErtCtMgOEfBiMgWYN6UBNxBUJViR76I+AZti5FhVvrzCzXHdb
7P3VDkvvde6mnD9iVvG1JvsjCnxXIqM64TG6n3dxC1WgNBh5AtN6Uo+x/OQy6S9V
vmvzSbplnoc0tRwCtcxr9/ej+N4TWg6NSVOwRhfUEgBl5Oeco+53/EKsNjioOEc1
dEaRGUBhHrP5gJQ7Tt90aupKhQvxQQii68lO8RWQsH4jftnkuUB89lFhHtJ+FTp8
CzRCMLtNya/HlsPiDDICBeg7HVgf9RPRU7LvKs/BLXi9I2ScBKpEwJGi5xcEJ/mU
9T9+WitNZldhtz/pGHj2IM1uWtrUUuhiGYetG7i/1TudPVTt3nBXACgWpnwZbkHT
KH8r+REfGDuATb362kwScZjP9IX05ChtAgMBAAGjezB5MAkGA1UdEwQCMAAwLAYJ
YIZIAYb4QgENBB8WHU9wZW5TU0wgR2VuZXJhdGVkIENlcnRpZmljYXRlMB0GA1Ud
DgQWBBTaWUTnl2e+0GvaqCXUFPDXi3czoDAfBgNVHSMEGDAWgBSDPLP68TfA3TM7
A8uCLCNgsJfu2TANBgkqhkiG9w0BAQsFAAOCAgEAXRd0t4I+M0fXzOm3/WIj56BX
HtVYUdiT+6xFu7ZVi2M2pAkAFkWlqbA8cVoI1T76ue6u9cq6K1bB4yHnYycWijME
rrGsHN0wIRQvLQm5lPuUtMhks/eTTngf07zECJ9s5xvIiPRdb1EegQTVtRQdzxhK
Di6xXtBddp5uiRzqEnNwapKZDdKQrtCd2W0LSLtiv2ZqxRA3yrRAIl092X49PxRj
bVFAj/6WHJQQpej0DGeJHQYh11pzO4RaQK0vMIOce/aT55Ogx/RZZjoZ39u3WQce
1gMyHXV3M8OGssFTmjpwqTiTWJlZldPSA6aLAEU5vW5tZpHgvpdLjSS0V7oIMump
eOXbNbeCyZBJFBY/qlAQQKc9zwobuxICMuonBEh9Sf/OPuSW1YYJ2EvI7bGuwcVO
cBVqNPwmblYwdV1axdjYL3N08aTD2KWlyEmzqZ40PtOBr8yJ9hMKV8Iu5NqJ5lLQ
/YFx7yxtOOFxqhsuAqbYmPyikGukoTRSxAn1lXhWkZcKkIhgTEuxd8mjtX08Ntm2
fyBT+wTTS+VbuVzx0aHQbWxLqSQXWqPF2bVc4Paq9cBnxk/QOVwkMSpr9E6RZFlx
JpaXSYSf4NqMABEandrjlCIrFedzcX59mR8z5iFlW3xuZ5SI1EBRWDbH4fAxuFw7
h+LZ1sl/ln+FfOzSqQU=
-----END CERTIFICATE-----
