Certificate:
    Data:
        Version: 3 (0x2)
        Serial Number: 306714181 (0x12481645)
        Signature Algorithm: sha256WithRSAEncryption
        Issuer: CN=SRK3_sha256_4096_65537_v3_ca
        Validity
            Not Before: Nov  6 11:26:53 2023 GMT
            Not After : Nov  1 11:26:53 2043 GMT
        Subject: CN=CSF3_1_sha256_4096_65537_v3_usr
        Subject Public Key Info:
            Public Key Algorithm: rsaEncryption
                Public-Key: (4096 bit)
                Modulus:
                    00:a7:62:a0:1a:0b:be:3f:86:1a:75:87:97:06:97:
                    bc:48:45:1e:81:7e:1a:5b:73:c8:d7:ee:7f:87:6e:
                    c7:eb:1b:52:c6:db:59:ff:d3:37:f4:1d:b1:1d:12:
                    86:0d:5b:58:bd:47:03:35:d2:64:d7:07:0d:59:2c:
                    45:88:9d:01:fa:93:9d:75:96:b9:e9:47:29:5e:3b:
                    87:00:fb:ff:9f:39:26:9b:5e:7b:90:7e:70:de:8d:
                    47:7f:33:f3:35:1e:1d:b4:3b:c9:23:77:06:41:03:
                    bc:ea:b2:04:c7:4d:a5:fd:09:81:03:45:54:1d:7f:
                    3b:6d:fb:61:80:a1:68:84:4d:31:15:16:c5:0f:f8:
                    cf:09:4f:b1:09:d3:53:f1:55:f1:b5:57:f3:de:47:
                    47:b3:55:c5:be:dc:88:d7:c9:fd:d8:b0:5c:f4:e0:
                    cf:0a:6a:26:f0:b6:89:e9:6d:16:b6:5e:64:9c:aa:
                    a7:42:c8:9e:3d:fa:76:6e:3f:a6:e3:e7:56:d1:84:
                    cf:64:c3:bb:81:15:46:59:43:d5:3c:01:ff:bf:c5:
                    8f:23:9c:35:63:ab:c7:db:82:bb:39:d7:8b:e3:61:
                    95:9c:92:91:bc:4b:39:5e:83:22:89:8d:49:da:42:
                    e1:43:3f:ed:dd:24:7d:0d:8d:d7:c3:f5:6b:a2:2a:
                    f4:b8:b0:22:41:74:a3:a6:3c:40:bc:78:5a:8e:2f:
                    f3:13:6a:67:bf:ff:45:00:5b:a0:f2:c6:e4:6b:b8:
                    4b:57:79:d2:13:55:50:db:a3:ca:b2:9d:62:a7:1a:
                    0d:41:2c:f2:99:52:cf:50:63:6b:0a:b8:f8:62:1d:
                    89:75:ff:16:49:2e:da:e0:6c:2b:b6:63:34:e0:ea:
                    e0:67:53:27:16:10:98:54:17:2e:eb:eb:13:b0:31:
                    9b:32:c4:42:4f:fd:36:15:ca:ac:2a:36:d5:09:a9:
                    14:99:b9:ef:d9:6a:aa:6d:1b:4a:c2:57:c6:c8:6d:
                    07:b8:d3:79:f2:b0:eb:af:44:d3:3a:00:0b:31:64:
                    4a:67:38:f3:2e:34:51:ed:29:c9:1e:1d:0b:2b:07:
                    87:df:6c:06:e5:fc:24:58:61:84:e9:a0:d8:32:71:
                    b6:f5:0f:23:b0:56:ba:87:03:b0:5c:c0:4d:52:16:
                    d5:90:ac:5e:5d:ba:ce:c5:79:00:ca:ae:95:6a:2d:
                    54:74:06:99:38:14:db:69:1f:35:60:ef:0c:0b:6e:
                    34:34:e9:73:90:71:a4:6b:db:6e:c9:b8:85:a2:e5:
                    0e:f2:1a:99:e3:47:40:ab:80:e9:24:21:cd:ba:3d:
                    f6:c5:26:c8:86:1c:ae:52:ec:1f:03:ee:1f:e5:21:
                    82:6d:93
                Exponent: 65537 (0x10001)
        X509v3 extensions:
            X509v3 Basic Constraints: 
                CA:FALSE
            Netscape Comment: 
                OpenSSL Generated Certificate
            X509v3 Subject Key Identifier: 
                6B:A8:5C:22:6D:54:A0:61:BA:FA:47:1C:60:30:AC:D9:97:3E:83:AA
            X509v3 Authority Key Identifier: 
                AC:0B:FF:B0:80:92:08:B5:8E:BC:CE:25:46:8B:04:CA:45:33:B3:6E
    Signature Algorithm: sha256WithRSAEncryption
    Signature Value:
        13:4a:34:9c:91:e1:7b:e1:0d:6e:cb:21:84:8c:3b:09:45:71:
        ed:b3:f4:73:c1:7d:09:b7:e5:c5:ac:c7:7c:52:92:76:33:c7:
        34:db:ca:bb:6a:a9:18:f7:04:22:38:60:74:b5:91:54:d6:2a:
        95:d0:99:75:40:56:d6:98:18:e6:95:84:43:bf:4c:a2:46:8f:
        af:97:41:1b:69:79:ed:ca:df:a1:0c:85:81:ec:05:ef:93:0e:
        f5:07:b4:d9:4a:3c:51:59:02:0c:9b:1b:62:a1:27:b0:5f:c6:
        1a:6c:41:60:94:a7:d9:c7:1c:d8:a0:e8:9e:39:a6:a8:b3:a2:
        49:c0:93:64:09:f7:e9:91:3c:38:4d:5c:44:36:75:93:27:aa:
        ec:7a:80:d3:02:2e:ec:1f:67:1d:62:84:c3:72:e1:7f:f2:cd:
        04:02:e8:e7:93:c4:fb:c6:0c:d4:bd:b3:c4:f9:86:4f:dc:de:
        69:03:08:2c:ed:b9:97:59:ab:1a:1e:19:2a:3d:37:56:0a:cb:
        13:50:cc:a0:45:75:0f:7f:8e:60:c6:7e:9e:d6:6b:89:ea:2d:
        a1:4f:b2:dc:22:6c:73:65:5e:2a:64:81:d9:5b:62:e0:9c:8b:
        e2:79:8e:ab:d3:bb:3d:bd:33:a5:24:6f:2c:5d:23:af:0c:fa:
        c9:f4:db:d6:a7:0f:83:1b:f1:b4:55:58:7b:e2:c7:81:89:21:
        96:1f:28:80:d1:3a:ee:39:c0:43:ea:a5:91:cb:e9:f9:91:fe:
        7a:5d:9c:19:bc:0e:9b:22:c3:d3:23:c8:19:35:5f:70:73:57:
        b9:e1:8a:17:fe:a0:09:1b:46:4f:d0:73:6e:8b:9c:3a:c4:71:
        a3:45:5c:1c:4d:71:8a:84:1a:7a:c7:bb:5b:f0:c7:18:80:97:
        da:0e:66:7b:bd:df:56:6f:3b:5f:67:d4:57:95:93:4b:37:45:
        e1:38:21:a5:0a:f7:77:7c:a0:4f:17:50:11:33:19:f4:7e:f9:
        0e:49:c7:96:f3:6f:6b:4e:e3:db:33:bc:9d:20:69:f1:25:20:
        90:dc:e7:e3:5a:90:72:eb:16:c5:10:eb:cc:0a:21:4a:ce:82:
        4a:0d:48:53:9b:7f:ab:2b:2b:61:ba:05:5b:cf:85:b9:58:53:
        7e:56:60:92:d3:79:a7:a4:b9:45:6e:ba:6a:ea:00:fb:7a:9a:
        33:88:6c:75:03:b7:a7:60:d9:dd:ce:ad:62:d1:06:08:e9:fe:
        c5:0b:c9:d3:fd:73:f1:2e:56:37:e9:e0:15:46:c5:aa:21:06:
        b1:03:68:1f:a3:7b:e6:7a:c5:61:15:e4:b0:ea:a5:b9:1b:a3:
        9b:03:14:9e:62:ab:2e:15
-----BEGIN CERTIFICATE-----
MIIFSjCCAzKgAwIBAgIEEkgWRTANBgkqhkiG9w0BAQsFADAnMSUwIwYDVQQDDBxT
UkszX3NoYTI1Nl80MDk2XzY1NTM3X3YzX2NhMB4XDTIzMTEwNjExMjY1M1oXDTQz
MTEwMTExMjY1M1owKjEoMCYGA1UEAwwfQ1NGM18xX3NoYTI1Nl80MDk2XzY1NTM3
X3YzX3VzcjCCAiIwDQYJKoZIhvcNAQEBBQADggIPADCCAgoCggIBAKdioBoLvj+G
GnWHlwaXvEhFHoF+GltzyNfuf4dux+sbUsbbWf/TN/QdsR0Shg1bWL1HAzXSZNcH
DVksRYidAfqTnXWWuelHKV47hwD7/585Jptee5B+cN6NR38z8zUeHbQ7ySN3BkED
vOqyBMdNpf0JgQNFVB1/O237YYChaIRNMRUWxQ/4zwlPsQnTU/FV8bVX895HR7NV
xb7ciNfJ/diwXPTgzwpqJvC2ieltFrZeZJyqp0LInj36dm4/puPnVtGEz2TDu4EV
RllD1TwB/7/FjyOcNWOrx9uCuznXi+NhlZySkbxLOV6DIomNSdpC4UM/7d0kfQ2N
18P1a6Iq9LiwIkF0o6Y8QLx4Wo4v8xNqZ7//RQBboPLG5Gu4S1d50hNVUNujyrKd
YqcaDUEs8plSz1Bjawq4+GIdiXX/Fkku2uBsK7ZjNODq4GdTJxYQmFQXLuvrE7Ax
mzLEQk/9NhXKrCo21QmpFJm579lqqm0bSsJXxshtB7jTefKw669E0zoACzFkSmc4
8y40Ue0pyR4dCysHh99sBuX8JFhhhOmg2DJxtvUPI7BWuocDsFzATVIW1ZCsXl26
zsV5AMqulWotVHQGmTgU22kfNWDvDAtuNDTpc5BxpGvbbsm4haLlDvIameNHQKuA
6SQhzbo99sUmyIYcrlLsHwPuH+Uhgm2TAgMBAAGjezB5MAkGA1UdEwQCMAAwLAYJ
YIZIAYb4QgENBB8WHU9wZW5TU0wgR2VuZXJhdGVkIENlcnRpZmljYXRlMB0GA1Ud
DgQWBBRrqFwibVSgYbr6RxxgMKzZlz6DqjAfBgNVHSMEGDAWgBSsC/+wgJIItY68
ziVGiwTKRTOzbjANBgkqhkiG9w0BAQsFAAOCAgEAE0o0nJHhe+ENbsshhIw7CUVx
7bP0c8F9CbflxazHfFKSdjPHNNvKu2qpGPcEIjhgdLWRVNYqldCZdUBW1pgY5pWE
Q79MokaPr5dBG2l57crfoQyFgewF75MO9Qe02Uo8UVkCDJsbYqEnsF/GGmxBYJSn
2ccc2KDonjmmqLOiScCTZAn36ZE8OE1cRDZ1kyeq7HqA0wIu7B9nHWKEw3Lhf/LN
BALo55PE+8YM1L2zxPmGT9zeaQMILO25l1mrGh4ZKj03VgrLE1DMoEV1D3+OYMZ+
ntZrieotoU+y3CJsc2VeKmSB2Vti4JyL4nmOq9O7Pb0zpSRvLF0jrwz6yfTb1qcP
gxvxtFVYe+LHgYkhlh8ogNE67jnAQ+qlkcvp+ZH+el2cGbwOmyLD0yPIGTVfcHNX
ueGKF/6gCRtGT9BzboucOsRxo0VcHE1xioQaese7W/DHGICX2g5me73fVm87X2fU
V5WTSzdF4TghpQr3d3ygTxdQETMZ9H75DknHlvNva07j2zO8nSBp8SUgkNzn41qQ
cusWxRDrzAohSs6CSg1IU5t/qysrYboFW8+FuVhTflZgktN5p6S5RW66auoA+3qa
M4hsdQO3p2DZ3c6tYtEGCOn+xQvJ0/1z8S5WN+ngFUbFqiEGsQNoH6N75nrFYRXk
sOqluRujmwMUnmKrLhU=
-----END CERTIFICATE-----
