Certificate:
    Data:
        Version: 3 (0x2)
        Serial Number: 306714184 (0x12481648)
        Signature Algorithm: sha256WithRSAEncryption
        Issuer: CN=SRK4_sha256_4096_65537_v3_ca
        Validity
            Not Before: Nov  6 11:26:57 2023 GMT
            Not After : Nov  1 11:26:57 2043 GMT
        Subject: CN=CSF4_1_sha256_4096_65537_v3_usr
        Subject Public Key Info:
            Public Key Algorithm: rsaEncryption
                Public-Key: (4096 bit)
                Modulus:
                    00:b3:38:fd:98:e4:45:11:c2:f7:50:18:38:2f:a3:
                    40:db:95:98:79:d2:0e:51:f9:43:0c:22:88:8b:ba:
                    dc:f1:d9:60:32:5b:d8:73:21:5f:89:c2:13:d1:76:
                    1a:d8:e3:58:df:29:e9:fc:96:24:17:15:78:34:bb:
                    e6:e2:0d:46:7d:5e:06:8c:d1:1f:7b:51:a5:43:14:
                    e4:26:7a:39:01:63:ec:3a:b6:58:2b:4c:b2:6e:2c:
                    30:b5:45:37:01:9c:cd:6b:a7:a9:0a:62:b8:36:b6:
                    04:78:4c:ce:30:87:99:5f:a6:c2:72:0d:04:00:1e:
                    13:c9:aa:a9:de:f3:24:cc:0c:43:c6:0b:82:73:ae:
                    7a:93:6a:3d:25:16:08:77:e5:a9:5b:5e:a8:ea:de:
                    31:9e:c4:5f:4c:cf:98:31:b6:32:12:4a:03:37:91:
                    92:2d:aa:35:83:02:5f:94:0b:3d:5b:b3:7f:77:13:
                    8f:08:3f:06:6d:f0:ea:c3:44:92:99:c7:db:ee:80:
                    94:75:8e:f1:95:96:e3:a9:a1:5a:fd:d8:07:9c:e4:
                    39:15:f3:e3:00:34:85:5f:e1:47:1d:fc:65:1b:5d:
                    4f:3b:13:35:63:e6:46:d2:4d:74:fa:69:cd:2a:6a:
                    1a:7b:99:be:77:13:33:ae:dc:2c:91:df:bd:53:c6:
                    f9:39:82:3a:eb:5b:06:b9:4b:ce:19:9e:9f:fc:ef:
                    2e:55:43:de:c0:bc:a1:79:b4:f0:0e:59:06:5d:78:
                    eb:cf:ee:4f:88:04:c2:1d:46:2a:f7:fb:73:41:31:
                    62:bb:8b:a0:12:10:a6:53:a7:2a:13:13:58:ae:ea:
                    ae:9a:fa:c9:44:f6:98:36:20:8f:de:c0:bf:d2:79:
                    06:89:46:2c:7f:4e:7e:56:35:71:48:9c:3f:13:e3:
                    43:2b:f9:4c:da:73:44:71:97:f8:ce:4d:6c:f6:fa:
                    d2:8f:5b:0a:ae:d1:ab:92:fa:c5:09:b6:f9:88:f6:
                    9c:85:53:83:0f:a6:47:89:41:f3:aa:e2:2a:a5:e6:
                    8f:6a:b5:de:37:ba:8e:f2:6a:9b:ee:f8:39:1e:fa:
                    fd:c4:1d:8a:62:45:38:96:e5:55:52:44:32:90:31:
                    94:a9:07:c1:03:66:8d:9d:e6:0b:f3:e1:42:94:bb:
                    1c:41:dd:9b:64:01:48:df:8e:e4:f0:41:04:c0:3e:
                    2b:45:04:e8:5e:55:f8:b0:a5:b5:33:09:34:cd:a5:
                    e4:13:90:97:85:31:79:7d:2a:e7:c8:6a:77:35:7e:
                    72:ec:af:08:89:29:28:75:f6:9c:ae:38:de:fa:bd:
                    59:0c:9d:6a:f8:dc:37:5c:14:43:01:04:fd:03:39:
                    5f:62:cd
                Exponent: 65537 (0x10001)
        X509v3 extensions:
            X509v3 Basic Constraints: 
                CA:FALSE
            Netscape Comment: 
                OpenSSL Generated Certificate
            X509v3 Subject Key Identifier: 
                3B:3D:71:63:5E:F1:3E:BA:A6:86:C9:6A:B5:27:CE:81:88:E1:E8:32
            X509v3 Authority Key Identifier: 
                4C:2C:FE:1D:DE:21:E5:A8:5B:99:EB:23:2D:65:40:7E:DD:33:46:93
    Signature Algorithm: sha256WithRSAEncryption
    Signature Value:
        71:b7:55:cb:59:54:58:81:1c:21:b9:b7:37:f9:e6:8f:16:eb:
        ea:c5:ef:34:59:cc:ce:39:9a:78:98:53:76:8c:c4:ee:f5:a0:
        3c:6b:8c:86:2e:4b:50:f0:ea:58:4d:75:a9:72:80:17:56:a1:
        02:53:3d:c3:bd:9b:ec:3e:3b:ee:34:87:66:57:18:a6:68:15:
        3a:2d:bd:99:b6:b8:d8:34:fc:6e:9a:b6:69:69:82:2e:e7:e7:
        95:3b:3e:d3:2f:77:58:ed:3a:a8:06:4f:43:1b:2f:a6:32:20:
        7e:e7:8b:b5:16:e4:89:31:ec:fa:14:5b:01:c4:f4:27:e0:fb:
        ea:17:cf:2c:b4:b5:84:f3:02:5e:ed:e8:04:00:81:d6:3a:e9:
        35:69:49:3d:8e:fd:9e:0f:61:78:44:e1:da:80:39:c6:64:d6:
        ff:6f:d9:4f:d0:5d:03:fa:40:3c:af:bc:70:ff:72:f1:45:c1:
        0a:a7:be:4a:ba:56:2e:91:fa:58:f3:c0:b7:d0:a5:1f:57:c7:
        05:9c:22:38:3d:7c:61:cb:36:46:d4:de:b3:ec:c1:06:29:d0:
        ab:ad:80:97:24:84:08:b6:fb:7c:8d:34:b1:0d:28:62:19:ef:
        69:fe:50:f9:76:19:09:b6:d4:c8:a6:33:2a:52:32:c7:f4:e8:
        b8:17:56:0a:c6:3f:2b:09:50:cc:b1:ee:0d:fe:e6:02:24:5e:
        02:9d:87:c2:bc:33:90:92:e1:8e:bd:9b:14:d2:17:cc:bb:dd:
        17:27:f5:6f:df:55:d1:0a:1b:73:30:e5:c2:87:99:85:e0:c2:
        b9:cd:6b:e8:aa:19:1b:fc:57:b6:be:25:2e:4d:42:72:a9:bc:
        de:6f:1a:43:d3:79:f3:79:d5:c4:23:ca:5a:8b:f8:2e:5e:cf:
        18:90:6f:6c:08:c1:cb:1e:0c:52:74:c6:de:de:6c:ec:8b:3d:
        58:66:a7:04:49:78:ba:32:6d:7f:17:db:13:91:10:b9:b9:9e:
        a5:a3:73:a7:27:d7:30:83:60:7d:60:e0:83:3e:18:b9:03:88:
        b2:97:63:3d:23:e5:88:f0:5e:3e:16:ed:29:6b:e9:a8:69:18:
        c3:86:ea:96:aa:f9:db:da:cc:78:9e:34:88:c3:e0:a5:7f:b9:
        cb:d6:99:c9:8b:ea:07:3b:23:25:c2:c9:c4:0d:4e:1e:e6:79:
        28:f2:2a:2f:8f:d6:80:c4:9d:54:f8:51:74:1b:31:b0:bd:d7:
        d2:60:36:f8:4d:b5:90:84:e5:db:cd:ba:0c:3c:17:a0:3b:56:
        e7:e1:69:6f:e8:36:11:ff:07:1b:96:06:1a:59:6f:f4:6f:43:
        a0:f6:b7:cc:dc:da:ed:5f
-----BEGIN CERTIFICATE-----
MIIFSjCCAzKgAwIBAgIEEkgWSDANBgkqhkiG9w0BAQsFADAnMSUwIwYDVQQDDBxT
Uks0X3NoYTI1Nl80MDk2XzY1NTM3X3YzX2NhMB4XDTIzMTEwNjExMjY1N1oXDTQz
MTEwMTExMjY1N1owKjEoMCYGA1UEAwwfQ1NGNF8xX3NoYTI1Nl80MDk2XzY1NTM3
X3YzX3VzcjCCAiIwDQYJKoZIhvcNAQEBBQADggIPADCCAgoCggIBALM4/ZjkRRHC
91AYOC+jQNuVmHnSDlH5QwwiiIu63PHZYDJb2HMhX4nCE9F2GtjjWN8p6fyWJBcV
eDS75uINRn1eBozRH3tRpUMU5CZ6OQFj7Dq2WCtMsm4sMLVFNwGczWunqQpiuDa2
BHhMzjCHmV+mwnINBAAeE8mqqd7zJMwMQ8YLgnOuepNqPSUWCHflqVteqOreMZ7E
X0zPmDG2MhJKAzeRki2qNYMCX5QLPVuzf3cTjwg/Bm3w6sNEkpnH2+6AlHWO8ZWW
46mhWv3YB5zkORXz4wA0hV/hRx38ZRtdTzsTNWPmRtJNdPppzSpqGnuZvncTM67c
LJHfvVPG+TmCOutbBrlLzhmen/zvLlVD3sC8oXm08A5ZBl1468/uT4gEwh1GKvf7
c0ExYruLoBIQplOnKhMTWK7qrpr6yUT2mDYgj97Av9J5BolGLH9OflY1cUicPxPj
Qyv5TNpzRHGX+M5NbPb60o9bCq7Rq5L6xQm2+Yj2nIVTgw+mR4lB86riKqXmj2q1
3je6jvJqm+74OR76/cQdimJFOJblVVJEMpAxlKkHwQNmjZ3mC/PhQpS7HEHdm2QB
SN+O5PBBBMA+K0UE6F5V+LCltTMJNM2l5BOQl4UxeX0q58hqdzV+cuyvCIkpKHX2
nK443vq9WQydavjcN1wUQwEE/QM5X2LNAgMBAAGjezB5MAkGA1UdEwQCMAAwLAYJ
YIZIAYb4QgENBB8WHU9wZW5TU0wgR2VuZXJhdGVkIENlcnRpZmljYXRlMB0GA1Ud
DgQWBBQ7PXFjXvE+uqaGyWq1J86BiOHoMjAfBgNVHSMEGDAWgBRMLP4d3iHlqFuZ
6yMtZUB+3TNGkzANBgkqhkiG9w0BAQsFAAOCAgEAcbdVy1lUWIEcIbm3N/nmjxbr
6sXvNFnMzjmaeJhTdozE7vWgPGuMhi5LUPDqWE11qXKAF1ahAlM9w72b7D477jSH
ZlcYpmgVOi29mba42DT8bpq2aWmCLufnlTs+0y93WO06qAZPQxsvpjIgfueLtRbk
iTHs+hRbAcT0J+D76hfPLLS1hPMCXu3oBACB1jrpNWlJPY79ng9heETh2oA5xmTW
/2/ZT9BdA/pAPK+8cP9y8UXBCqe+SrpWLpH6WPPAt9ClH1fHBZwiOD18Ycs2RtTe
s+zBBinQq62AlySECLb7fI00sQ0oYhnvaf5Q+XYZCbbUyKYzKlIyx/TouBdWCsY/
KwlQzLHuDf7mAiReAp2HwrwzkJLhjr2bFNIXzLvdFyf1b99V0QobczDlwoeZheDC
uc1r6KoZG/xXtr4lLk1Ccqm83m8aQ9N583nVxCPKWov4Ll7PGJBvbAjByx4MUnTG
3t5s7Is9WGanBEl4ujJtfxfbE5EQubmepaNzpyfXMINgfWDggz4YuQOIspdjPSPl
iPBePhbtKWvpqGkYw4bqlqr529rMeJ40iMPgpX+5y9aZyYvqBzsjJcLJxA1OHuZ5
KPIqL4/WgMSdVPhRdBsxsL3X0mA2+E21kITl2826DDwXoDtW5+Fpb+g2Ef8HG5YG
Gllv9G9DoPa3zNza7V8=
-----END CERTIFICATE-----
