Certificate:
    Data:
        Version: 3 (0x2)
        Serial Number: 306714176 (0x12481640)
        Signature Algorithm: sha256WithRSAEncryption
        Issuer: CN=SRK1_sha256_4096_65537_v3_ca
        Validity
            Not Before: Nov  6 11:26:42 2023 GMT
            Not After : Nov  1 11:26:42 2043 GMT
        Subject: CN=IMG1_1_sha256_4096_65537_v3_usr
        Subject Public Key Info:
            Public Key Algorithm: rsaEncryption
                Public-Key: (4096 bit)
                Modulus:
                    00:b4:7c:f9:97:74:53:5b:4c:96:d4:2e:8c:05:40:
                    6e:66:1e:f2:70:d3:77:91:3d:29:e9:95:32:6f:63:
                    03:89:b0:93:33:12:fb:6a:1e:33:a4:c1:ec:03:bb:
                    0d:2f:fa:46:a7:fe:4e:e1:60:db:2d:9a:72:23:76:
                    ea:f5:2b:e7:54:af:57:68:5f:a7:6f:5d:20:8b:8f:
                    19:28:cb:d0:87:fb:6e:76:c2:f6:14:b3:66:85:69:
                    aa:50:71:c6:5c:41:a2:b0:fc:ff:8d:8d:68:b7:b2:
                    34:83:30:ab:cf:b2:58:85:d9:92:f6:59:9e:1c:35:
                    85:27:27:80:52:72:00:ba:a4:a0:5a:f1:4c:1f:2a:
                    79:f2:87:aa:4b:e4:f0:67:bb:ee:e9:f7:83:f4:fb:
                    f9:ab:55:de:17:0d:3c:c6:a5:ea:57:f2:86:62:fb:
                    69:16:11:30:9f:77:d1:31:89:0f:0c:dd:02:ce:cf:
                    fd:7e:17:df:70:17:a3:41:e7:79:3a:7d:3a:e3:1c:
                    0e:10:25:b4:16:ef:0f:ce:d0:14:7b:83:a3:d7:d9:
                    cb:19:7c:45:ba:fc:67:fc:24:11:08:48:5f:2f:9c:
                    aa:a9:20:16:3d:43:f4:50:79:df:ae:52:65:f8:c2:
                    b2:86:9c:76:28:82:91:37:e2:bd:a7:cb:f7:65:ad:
                    2a:f0:e7:07:de:dc:d7:63:5c:c3:59:a9:e5:b0:97:
                    db:7e:56:c1:67:37:7c:96:3f:15:84:26:a8:bf:aa:
                    e5:83:86:2d:ed:79:64:65:bc:c7:bc:09:d9:27:42:
                    2d:37:5d:99:5d:35:8f:2c:79:3c:59:3a:4e:04:ca:
                    1e:8f:69:07:b9:6e:45:34:ce:09:1f:0b:ea:ed:f9:
                    e8:17:35:51:d5:f9:96:f1:bb:47:da:d2:57:86:cf:
                    00:fa:14:0c:73:47:8b:c8:c3:2e:38:80:86:e8:81:
                    17:eb:38:be:fc:c1:bf:ff:5d:c9:9b:d9:25:1e:60:
                    0a:4b:d8:20:60:ec:c5:a8:f5:87:49:81:e8:af:01:
                    5f:8e:71:d7:64:f6:af:2c:9c:3b:29:5e:fd:2f:50:
                    71:e3:f1:9c:cc:ee:58:e2:f2:d3:ac:47:b0:99:f2:
                    db:73:0c:f8:d1:af:d6:ed:ba:82:73:4d:74:cc:97:
                    c9:eb:55:4c:f7:24:0d:7d:b1:c8:d8:c3:ff:14:93:
                    cc:c4:65:57:57:09:03:d7:35:50:20:c3:34:dd:45:
                    fd:0f:56:a1:02:10:84:35:97:3d:9a:a1:22:52:a0:
                    fe:4b:24:c6:c2:33:b1:41:e6:27:b5:a2:24:70:09:
                    f5:c2:84:43:58:fe:9a:d2:93:5a:66:f9:9a:7f:3a:
                    01:4f:7b
                Exponent: 65537 (0x10001)
        X509v3 extensions:
            X509v3 Basic Constraints: 
                CA:FALSE
            Netscape Comment: 
                OpenSSL Generated Certificate
            X509v3 Subject Key Identifier: 
                49:04:05:39:18:43:BD:59:AC:4E:B3:C3:0C:57:11:19:26:90:12:8A
            X509v3 Authority Key Identifier: 
                04:CA:AD:23:57:E7:9D:33:45:C7:A6:F4:7A:93:BA:E4:E6:49:DF:96
    Signature Algorithm: sha256WithRSAEncryption
    Signature Value:
        2c:3a:6c:8a:02:43:71:66:b9:11:55:55:08:d6:83:21:4e:06:
        7f:e1:66:fb:6f:a5:92:5e:f2:fc:64:29:0d:a6:e2:a0:5f:85:
        da:02:aa:b2:f1:ea:ee:60:5f:a2:5a:e8:3b:5d:9a:33:a7:94:
        57:89:4c:be:88:8a:c0:6f:ee:72:61:59:09:5f:a2:af:62:52:
        b0:f3:34:23:b1:a0:c8:1a:7d:a5:17:ab:bc:2f:93:2f:36:03:
        00:68:8b:70:ec:d0:1e:77:9b:7c:7b:99:a9:57:6d:b4:0f:9b:
        aa:67:64:91:35:37:81:a8:b2:f9:f3:ed:2f:1f:b9:86:29:55:
        2c:7f:ad:8f:bb:5e:b1:76:52:cc:2e:c5:5b:e4:c7:70:66:54:
        52:3b:4c:80:d9:d0:c4:47:da:63:b7:67:e8:ba:f5:9b:71:7f:
        87:4e:0f:a4:34:9d:9e:af:6c:b3:e4:1a:61:9a:0a:61:6e:b2:
        ce:11:a4:85:a9:49:ac:66:2e:e8:f6:7e:21:2f:39:a4:da:e9:
        1a:aa:75:f8:6d:26:16:3c:22:24:36:31:9d:18:dd:4c:a2:1f:
        0f:02:64:d3:87:9d:57:82:f2:d8:4d:c4:54:9d:62:52:4a:48:
        39:a1:d0:b1:f1:92:0e:25:d6:62:f8:59:00:07:e8:8f:4d:7a:
        37:b8:12:dd:4e:9d:bf:30:35:12:41:4f:a4:c1:c9:5c:ab:e3:
        45:7c:d5:f4:51:2e:7a:1c:f8:12:f5:8d:e0:e0:db:3b:e3:92:
        c4:95:69:26:b6:0a:a9:bc:5e:e1:72:c6:6c:c8:23:7a:a7:af:
        2b:4c:22:bd:e0:19:fc:55:18:f1:a2:c1:6c:f5:54:30:4e:f9:
        a7:3f:76:41:4c:b2:00:37:ea:09:42:81:64:d0:98:b3:af:e6:
        39:0e:6c:f0:ef:f1:ff:0a:8d:b6:9b:cd:94:16:79:58:45:20:
        34:37:a7:e0:c7:6f:77:fa:77:9f:c4:64:ac:00:c0:f2:23:2e:
        3b:e9:c1:59:00:15:be:95:b5:d3:ef:0e:21:1e:a7:a1:7d:b9:
        ee:a2:9d:c1:21:42:34:3d:f6:1f:70:0b:50:db:fc:f0:ef:db:
        96:8b:55:0a:56:e7:7d:5d:b0:6f:f1:de:2d:e5:21:c7:ea:10:
        fb:64:55:17:0e:d7:77:07:1b:7f:ab:92:60:f0:4a:c0:06:9d:
        1b:f8:d0:4e:24:51:58:e1:c7:b7:c1:3c:52:d1:36:48:27:63:
        29:f8:8a:27:8b:43:72:ab:6e:e4:99:1c:fa:92:29:9e:88:51:
        1c:88:e1:a4:f7:38:4a:86:bd:06:aa:f3:d4:32:7e:e4:50:72:
        fa:04:2d:13:8c:1d:cc:13
-----BEGIN CERTIFICATE-----
MIIFSjCCAzKgAwIBAgIEEkgWQDANBgkqhkiG9w0BAQsFADAnMSUwIwYDVQQDDBxT
UksxX3NoYTI1Nl80MDk2XzY1NTM3X3YzX2NhMB4XDTIzMTEwNjExMjY0MloXDTQz
MTEwMTExMjY0MlowKjEoMCYGA1UEAwwfSU1HMV8xX3NoYTI1Nl80MDk2XzY1NTM3
X3YzX3VzcjCCAiIwDQYJKoZIhvcNAQEBBQADggIPADCCAgoCggIBALR8+Zd0U1tM
ltQujAVAbmYe8nDTd5E9KemVMm9jA4mwkzMS+2oeM6TB7AO7DS/6Rqf+TuFg2y2a
ciN26vUr51SvV2hfp29dIIuPGSjL0If7bnbC9hSzZoVpqlBxxlxBorD8/42NaLey
NIMwq8+yWIXZkvZZnhw1hScngFJyALqkoFrxTB8qefKHqkvk8Ge77un3g/T7+atV
3hcNPMal6lfyhmL7aRYRMJ930TGJDwzdAs7P/X4X33AXo0HneTp9OuMcDhAltBbv
D87QFHuDo9fZyxl8Rbr8Z/wkEQhIXy+cqqkgFj1D9FB5365SZfjCsoacdiiCkTfi
vafL92WtKvDnB97c12Ncw1mp5bCX235WwWc3fJY/FYQmqL+q5YOGLe15ZGW8x7wJ
2SdCLTddmV01jyx5PFk6TgTKHo9pB7luRTTOCR8L6u356Bc1UdX5lvG7R9rSV4bP
APoUDHNHi8jDLjiAhuiBF+s4vvzBv/9dyZvZJR5gCkvYIGDsxaj1h0mB6K8BX45x
12T2ryycOyle/S9QcePxnMzuWOLy06xHsJny23MM+NGv1u26gnNNdMyXyetVTPck
DX2xyNjD/xSTzMRlV1cJA9c1UCDDNN1F/Q9WoQIQhDWXPZqhIlKg/kskxsIzsUHm
J7WiJHAJ9cKEQ1j+mtKTWmb5mn86AU97AgMBAAGjezB5MAkGA1UdEwQCMAAwLAYJ
YIZIAYb4QgENBB8WHU9wZW5TU0wgR2VuZXJhdGVkIENlcnRpZmljYXRlMB0GA1Ud
DgQWBBRJBAU5GEO9WaxOs8MMVxEZJpASijAfBgNVHSMEGDAWgBQEyq0jV+edM0XH
pvR6k7rk5knfljANBgkqhkiG9w0BAQsFAAOCAgEALDpsigJDcWa5EVVVCNaDIU4G
f+Fm+2+lkl7y/GQpDabioF+F2gKqsvHq7mBfolroO12aM6eUV4lMvoiKwG/ucmFZ
CV+ir2JSsPM0I7GgyBp9pRervC+TLzYDAGiLcOzQHnebfHuZqVdttA+bqmdkkTU3
gaiy+fPtLx+5hilVLH+tj7tesXZSzC7FW+THcGZUUjtMgNnQxEfaY7dn6Lr1m3F/
h04PpDSdnq9ss+QaYZoKYW6yzhGkhalJrGYu6PZ+IS85pNrpGqp1+G0mFjwiJDYx
nRjdTKIfDwJk04edV4Ly2E3EVJ1iUkpIOaHQsfGSDiXWYvhZAAfoj016N7gS3U6d
vzA1EkFPpMHJXKvjRXzV9FEuehz4EvWN4ODbO+OSxJVpJrYKqbxe4XLGbMgjeqev
K0wiveAZ/FUY8aLBbPVUME75pz92QUyyADfqCUKBZNCYs6/mOQ5s8O/x/wqNtpvN
lBZ5WEUgNDen4Mdvd/p3n8RkrADA8iMuO+nBWQAVvpW10+8OIR6noX257qKdwSFC
ND32H3ALUNv88O/blotVClbnfV2wb/HeLeUhx+oQ+2RVFw7Xdwcbf6uSYPBKwAad
G/jQTiRRWOHHt8E8UtE2SCdjKfiKJ4tDcqtu5Jkc+pIpnohRHIjhpPc4Soa9Bqrz
1DJ+5FBy+gQtE4wdzBM=
-----END CERTIFICATE-----
