Certificate:
    Data:
        Version: 3 (0x2)
        Serial Number: 306714182 (0x12481646)
        Signature Algorithm: sha256WithRSAEncryption
        Issuer: CN=SRK3_sha256_4096_65537_v3_ca
        Validity
            Not Before: Nov  6 11:26:54 2023 GMT
            Not After : Nov  1 11:26:54 2043 GMT
        Subject: CN=IMG3_1_sha256_4096_65537_v3_usr
        Subject Public Key Info:
            Public Key Algorithm: rsaEncryption
                Public-Key: (4096 bit)
                Modulus:
                    00:c6:52:9b:f3:99:03:47:86:38:04:7c:ca:ae:96:
                    ca:bf:14:bf:7b:16:d1:98:49:b6:a9:80:74:0e:54:
                    a0:67:47:6c:18:7d:1a:f1:6f:fb:3f:ff:c7:d2:2f:
                    7f:e8:16:d8:11:68:2c:b2:5b:53:c0:99:48:ca:e1:
                    d6:b7:f0:19:64:c8:d8:63:02:7c:5a:c7:90:fd:3d:
                    82:a5:54:5f:ce:d1:d1:91:dd:03:d4:05:60:df:5b:
                    37:36:7f:a6:12:0b:db:29:ba:63:5f:dd:39:9d:4e:
                    52:11:cd:2d:34:81:4d:0d:55:7a:96:90:33:18:27:
                    92:54:10:63:2a:a4:e4:d9:5b:33:4c:a2:62:a1:30:
                    04:cd:3a:59:85:1d:e9:72:00:33:70:77:2d:14:e5:
                    f0:56:ac:26:3a:18:56:bb:a3:6d:23:f2:f9:0e:43:
                    3f:df:3c:c5:10:2a:2f:f6:45:e9:bb:8e:31:a0:03:
                    9d:ea:1e:61:e5:c5:d9:27:10:d2:e8:b5:80:21:37:
                    39:0c:11:2e:0b:f4:61:1f:aa:97:e7:a7:d4:fd:cc:
                    fe:a8:bb:9c:f5:3a:d0:ca:8a:ab:bc:1d:76:76:23:
                    20:e1:db:d4:ec:89:74:e9:3e:cf:26:e4:5c:64:5e:
                    c2:4b:8b:02:b9:0e:e9:4c:2e:e0:28:9e:c1:2e:d7:
                    a6:99:0f:f4:b2:01:0b:c8:8e:de:13:37:fa:76:78:
                    ab:a6:8d:45:18:db:2f:74:a6:2c:75:0f:b5:bf:78:
                    04:90:d6:4e:b4:81:c4:75:fe:d7:1c:ce:12:3e:2a:
                    25:03:29:72:e8:c9:ae:cb:33:16:fc:96:89:a5:7e:
                    7a:ec:af:3b:5c:1b:40:76:cd:c0:d0:d5:52:ff:62:
                    25:b2:33:ae:59:f4:40:a6:f6:1c:10:19:43:20:27:
                    50:f1:e4:de:f9:5e:a6:81:fe:25:f3:e5:aa:79:24:
                    25:99:b4:7c:b7:4b:48:0a:7b:5b:8f:45:27:06:5c:
                    dc:f4:9a:91:31:9a:08:85:9e:dd:08:89:c2:40:dc:
                    3e:7e:b7:bc:db:5d:f8:cb:68:d4:24:82:56:94:ea:
                    28:ee:b3:45:f8:a5:5a:70:f2:f2:cd:2d:46:2c:6c:
                    e7:32:64:0a:1a:4b:db:8f:db:e5:7c:11:fe:8a:6b:
                    01:3d:a6:e6:e6:da:10:a9:0c:71:0e:fe:b3:b7:0b:
                    5e:1f:79:fa:ca:24:d2:12:71:7a:c4:a1:2c:60:a8:
                    77:85:1e:8b:c6:72:23:c7:6b:65:12:04:66:29:f8:
                    46:fc:ca:ec:c7:bd:3b:35:d1:a4:e4:15:c6:d1:11:
                    53:6f:69:10:fb:1d:53:7a:3f:66:30:3d:68:2a:25:
                    3d:bd:9b
                Exponent: 65537 (0x10001)
        X509v3 extensions:
            X509v3 Basic Constraints: 
                CA:FALSE
            Netscape Comment: 
                OpenSSL Generated Certificate
            X509v3 Subject Key Identifier: 
                63:32:BD:9E:C4:E4:FD:95:61:DF:59:EE:6F:F1:FB:8C:18:4A:C6:D9
            X509v3 Authority Key Identifier: 
                AC:0B:FF:B0:80:92:08:B5:8E:BC:CE:25:46:8B:04:CA:45:33:B3:6E
    Signature Algorithm: sha256WithRSAEncryption
    Signature Value:
        5c:5a:38:5f:85:f3:44:43:95:89:cb:38:9d:29:2d:c8:4f:1d:
        26:13:45:fe:de:57:5e:ac:4a:be:a0:41:a5:d3:91:a2:48:37:
        58:6e:e1:89:9f:10:a5:59:48:f9:61:7a:30:be:f2:12:96:d3:
        24:83:46:74:d7:b0:d4:d2:63:d5:95:2f:cd:cd:da:20:58:39:
        5f:bd:ab:bf:02:12:3b:9c:ca:cc:7a:e7:25:e6:60:bc:3b:ba:
        cd:38:9a:17:31:8e:17:a0:95:87:74:f3:57:84:dd:a9:34:24:
        c4:a1:9a:6d:9e:6a:87:d6:e3:dd:95:dd:14:eb:a3:c2:fa:78:
        d6:bb:8d:37:3a:c6:b8:7e:4b:ea:ea:5b:bc:81:e7:8a:ad:fb:
        ca:17:dd:01:e2:6d:e7:8a:8b:56:6d:a8:20:9f:a7:15:b2:28:
        ea:22:c2:b6:7d:9d:6f:1c:3a:3f:48:9a:ae:14:cb:90:5c:cc:
        e7:af:a4:c8:32:40:8f:e5:5e:94:97:d6:c5:4d:0b:79:8e:2f:
        82:1f:ee:8f:e1:c2:d6:ac:73:81:86:9c:80:c7:4e:01:46:3e:
        64:17:92:ac:4a:16:6f:19:c0:87:13:90:23:3a:17:d8:e4:ca:
        0a:10:9e:c3:91:46:f2:75:8e:b8:83:20:c0:97:f8:64:00:c2:
        41:57:62:a6:3b:40:31:ae:be:74:f4:1e:75:37:c2:4e:59:3b:
        a2:f0:f1:05:ae:56:e6:2b:32:97:fc:78:58:32:7f:39:69:7d:
        d0:09:68:7b:be:08:63:5d:e3:0e:e0:4c:1b:59:85:ab:13:af:
        38:e2:64:2d:4b:41:a0:63:b1:96:05:4f:6b:55:a3:45:f0:77:
        dc:ea:19:a5:1e:a4:ff:08:54:36:04:d9:9f:df:96:09:ad:ab:
        1f:6e:3b:92:f7:64:66:78:bf:84:57:ab:2a:f4:87:65:c0:ef:
        46:6a:ef:68:95:0b:78:63:1f:ae:9e:71:2e:43:0a:dc:ac:9c:
        d3:2f:d3:24:73:7e:d6:ab:d4:cb:86:e1:f1:7d:1c:86:b2:8f:
        a6:a1:ad:bb:58:e3:51:35:38:65:8c:d0:9f:cb:e7:23:54:7e:
        f4:33:b7:41:28:95:80:98:18:7c:07:3b:b5:76:42:a8:5d:42:
        84:f4:5b:69:a8:b7:a7:6e:3e:6e:8a:3a:b3:37:92:9f:9f:8b:
        ec:1e:e8:3e:b9:41:17:73:74:81:e9:30:d1:77:96:42:f6:d0:
        46:80:78:1d:c8:73:17:0f:98:2d:04:18:06:b8:5a:88:51:0f:
        61:82:19:fb:6b:8d:51:87:c2:05:ee:e1:55:01:78:30:10:fc:
        29:e2:f6:7e:c0:ef:c5:07
-----BEGIN CERTIFICATE-----
MIIFSjCCAzKgAwIBAgIEEkgWRjANBgkqhkiG9w0BAQsFADAnMSUwIwYDVQQDDBxT
UkszX3NoYTI1Nl80MDk2XzY1NTM3X3YzX2NhMB4XDTIzMTEwNjExMjY1NFoXDTQz
MTEwMTExMjY1NFowKjEoMCYGA1UEAwwfSU1HM18xX3NoYTI1Nl80MDk2XzY1NTM3
X3YzX3VzcjCCAiIwDQYJKoZIhvcNAQEBBQADggIPADCCAgoCggIBAMZSm/OZA0eG
OAR8yq6Wyr8Uv3sW0ZhJtqmAdA5UoGdHbBh9GvFv+z//x9Ivf+gW2BFoLLJbU8CZ
SMrh1rfwGWTI2GMCfFrHkP09gqVUX87R0ZHdA9QFYN9bNzZ/phIL2ym6Y1/dOZ1O
UhHNLTSBTQ1VepaQMxgnklQQYyqk5NlbM0yiYqEwBM06WYUd6XIAM3B3LRTl8Fas
JjoYVrujbSPy+Q5DP988xRAqL/ZF6buOMaADneoeYeXF2ScQ0ui1gCE3OQwRLgv0
YR+ql+en1P3M/qi7nPU60MqKq7wddnYjIOHb1OyJdOk+zybkXGRewkuLArkO6Uwu
4CiewS7XppkP9LIBC8iO3hM3+nZ4q6aNRRjbL3SmLHUPtb94BJDWTrSBxHX+1xzO
Ej4qJQMpcujJrsszFvyWiaV+euyvO1wbQHbNwNDVUv9iJbIzrln0QKb2HBAZQyAn
UPHk3vlepoH+JfPlqnkkJZm0fLdLSAp7W49FJwZc3PSakTGaCIWe3QiJwkDcPn63
vNtd+Mto1CSCVpTqKO6zRfilWnDy8s0tRixs5zJkChpL24/b5XwR/oprAT2m5uba
EKkMcQ7+s7cLXh95+sok0hJxesShLGCod4Uei8ZyI8drZRIEZin4RvzK7Me9OzXR
pOQVxtERU29pEPsdU3o/ZjA9aColPb2bAgMBAAGjezB5MAkGA1UdEwQCMAAwLAYJ
YIZIAYb4QgENBB8WHU9wZW5TU0wgR2VuZXJhdGVkIENlcnRpZmljYXRlMB0GA1Ud
DgQWBBRjMr2exOT9lWHfWe5v8fuMGErG2TAfBgNVHSMEGDAWgBSsC/+wgJIItY68
ziVGiwTKRTOzbjANBgkqhkiG9w0BAQsFAAOCAgEAXFo4X4XzREOVics4nSktyE8d
JhNF/t5XXqxKvqBBpdORokg3WG7hiZ8QpVlI+WF6ML7yEpbTJINGdNew1NJj1ZUv
zc3aIFg5X72rvwISO5zKzHrnJeZgvDu6zTiaFzGOF6CVh3TzV4TdqTQkxKGabZ5q
h9bj3ZXdFOujwvp41ruNNzrGuH5L6upbvIHniq37yhfdAeJt54qLVm2oIJ+nFbIo
6iLCtn2dbxw6P0iarhTLkFzM56+kyDJAj+VelJfWxU0LeY4vgh/uj+HC1qxzgYac
gMdOAUY+ZBeSrEoWbxnAhxOQIzoX2OTKChCew5FG8nWOuIMgwJf4ZADCQVdipjtA
Ma6+dPQedTfCTlk7ovDxBa5W5isyl/x4WDJ/OWl90Aloe74IY13jDuBMG1mFqxOv
OOJkLUtBoGOxlgVPa1WjRfB33OoZpR6k/whUNgTZn9+WCa2rH247kvdkZni/hFer
KvSHZcDvRmrvaJULeGMfrp5xLkMK3Kyc0y/TJHN+1qvUy4bh8X0chrKPpqGtu1jj
UTU4ZYzQn8vnI1R+9DO3QSiVgJgYfAc7tXZCqF1ChPRbaai3p24+boo6szeSn5+L
7B7oPrlBF3N0gekw0XeWQvbQRoB4HchzFw+YLQQYBrhaiFEPYYIZ+2uNUYfCBe7h
VQF4MBD8KeL2fsDvxQc=
-----END CERTIFICATE-----
