Certificate:
    Data:
        Version: 3 (0x2)
        Serial Number: 306714185 (0x12481649)
        Signature Algorithm: sha256WithRSAEncryption
        Issuer: CN=SRK4_sha256_4096_65537_v3_ca
        Validity
            Not Before: Nov  6 11:26:57 2023 GMT
            Not After : Nov  1 11:26:57 2043 GMT
        Subject: CN=IMG4_1_sha256_4096_65537_v3_usr
        Subject Public Key Info:
            Public Key Algorithm: rsaEncryption
                Public-Key: (4096 bit)
                Modulus:
                    00:a8:81:1e:a0:4f:a5:95:56:75:bd:57:c3:61:b1:
                    01:b7:78:0c:7d:71:57:74:60:2f:c5:8a:f9:8f:8b:
                    c7:ff:cf:cf:f1:d8:8b:8f:d0:d5:0c:c9:d9:27:3b:
                    49:fe:94:58:7f:ad:b7:a7:da:df:8c:fa:1e:0b:b2:
                    88:d1:5d:21:4a:9f:32:fd:0d:9f:a1:81:be:26:2d:
                    41:0b:a8:06:ba:02:a0:62:ee:34:97:b6:4d:75:a7:
                    b9:48:94:c8:43:2b:f4:db:44:83:06:70:72:c1:cb:
                    ba:4e:50:b3:4a:26:0e:4f:10:7d:49:85:37:a8:20:
                    29:15:87:16:b2:cf:16:66:1b:1a:31:4d:c9:0c:dc:
                    7f:dc:f4:49:48:54:60:0a:93:6e:bc:e2:cb:12:05:
                    ce:91:ad:88:bf:1a:8f:d6:f3:cd:15:f5:3c:6b:d8:
                    c6:d1:8b:49:cf:9a:b8:80:75:28:72:25:ef:30:db:
                    1e:c6:a9:66:43:5f:4b:a2:60:59:7b:f4:9f:76:7d:
                    ce:08:35:06:48:71:5a:c2:57:6d:98:7b:17:b6:e9:
                    b7:f8:13:00:38:bd:85:53:81:18:14:f5:6e:a6:33:
                    4d:b0:f9:6e:2e:23:a8:38:bd:82:5c:f3:98:fa:01:
                    19:ae:b0:bd:59:06:6a:a9:e4:d7:11:80:78:b6:db:
                    21:e2:52:01:24:91:f9:79:ad:48:60:9f:57:34:61:
                    7c:0f:df:45:a1:58:89:d8:2c:3b:79:7f:2b:c2:7f:
                    4e:f7:e1:ba:68:85:c8:c3:ed:45:ba:e3:cd:d9:78:
                    3e:84:e2:ac:44:5a:8d:ca:7b:d6:4b:05:8a:b3:cb:
                    02:8e:08:d7:07:fd:51:13:d6:3d:0a:4e:89:29:ee:
                    3b:a2:f7:7f:52:66:01:37:19:d2:c9:be:be:60:f4:
                    e1:de:d7:63:dd:d4:45:c4:33:8b:bb:50:92:16:46:
                    0b:b5:b3:05:39:31:a6:43:cf:2b:31:0e:66:d9:08:
                    12:88:4b:5a:c2:c2:3f:a0:53:de:b6:8a:0a:6a:3e:
                    89:75:8f:e7:a3:a3:91:34:4d:5c:84:4a:bb:2b:8b:
                    76:72:5f:59:4e:9a:a6:2a:5d:59:03:8b:8e:fd:29:
                    c0:c6:ea:3f:08:4f:44:b0:f6:aa:2d:e6:f8:4a:a0:
                    0e:e3:17:38:66:9c:d3:7b:80:fa:5a:41:e8:ed:7a:
                    c0:62:f5:66:3f:9d:1d:54:c8:e6:df:4d:6a:88:d9:
                    6f:18:d0:9d:8b:68:1d:b5:80:c1:29:f5:37:f9:c7:
                    4e:44:b3:9e:a6:5a:ff:85:59:2f:2d:6e:92:69:12:
                    98:3b:bc:e5:77:bb:c7:5d:76:91:f5:40:2e:c5:df:
                    c6:99:01
                Exponent: 65537 (0x10001)
        X509v3 extensions:
            X509v3 Basic Constraints: 
                CA:FALSE
            Netscape Comment: 
                OpenSSL Generated Certificate
            X509v3 Subject Key Identifier: 
                92:51:82:92:E4:33:7D:59:6F:53:7B:FA:BF:D7:03:CF:4C:6D:8C:90
            X509v3 Authority Key Identifier: 
                4C:2C:FE:1D:DE:21:E5:A8:5B:99:EB:23:2D:65:40:7E:DD:33:46:93
    Signature Algorithm: sha256WithRSAEncryption
    Signature Value:
        16:df:94:4b:56:29:11:29:a0:2b:50:42:cd:ed:a4:c8:12:e2:
        a4:dc:ef:f8:b0:46:ee:27:85:75:42:22:b7:cf:b2:f2:0f:4d:
        db:5c:c2:6b:d2:ed:37:dd:62:00:96:e0:6d:45:6d:5f:74:15:
        e0:1b:79:52:7a:e3:3e:d6:25:02:8e:7f:40:57:4b:82:75:4c:
        02:35:a9:f0:c8:e5:c7:e9:30:df:71:f4:40:77:f8:b5:9d:61:
        3d:c5:70:97:0c:ad:5d:29:b6:dd:45:29:63:eb:e7:d7:34:01:
        39:0e:3b:80:dd:d1:2f:f5:45:0f:10:1f:50:b7:e2:9c:95:5e:
        3c:a5:f0:fc:eb:60:6f:0b:c2:bd:a5:a1:19:6a:b3:fd:ee:e2:
        a0:fe:c4:25:ce:f6:ed:95:cd:e9:06:eb:cf:4a:20:bd:2e:95:
        a6:68:20:29:f6:e7:23:6e:42:3d:f9:0e:cb:11:40:35:35:b2:
        c0:de:42:80:eb:5f:a1:2e:23:ae:dc:6d:5c:53:ed:64:62:41:
        b6:fd:6e:78:0f:6a:39:cf:c7:28:73:29:e2:5b:1c:0e:08:14:
        a8:10:ca:5d:54:86:2d:93:6a:57:a8:9d:5c:3e:a3:ee:09:9d:
        bf:ba:86:d5:52:d1:21:28:f1:57:a5:2c:c2:9b:c0:b8:cc:e8:
        8e:05:cf:e7:62:9b:11:b9:a4:89:ad:cc:68:8c:2a:f7:58:90:
        b9:e6:a5:64:b0:73:c7:8f:d3:3d:95:ec:8a:68:df:23:06:01:
        b8:4b:d2:af:04:29:17:dd:02:c8:08:50:94:55:18:5c:ee:dc:
        7f:37:ff:d2:86:b9:83:89:1b:fe:ba:15:00:3b:7a:66:32:f5:
        0f:4e:08:a6:8b:e4:f8:4c:06:f9:f9:17:ff:8c:fa:e3:eb:21:
        50:e1:e0:21:7d:d6:b3:1c:60:ff:80:eb:47:a4:ce:9d:0b:19:
        39:02:cd:7b:d5:dc:b9:07:56:ef:b1:3b:24:76:f8:f0:33:69:
        d7:72:fd:bd:65:9b:f2:58:ba:2c:24:eb:c8:9b:bd:f6:c5:a4:
        a6:1c:bc:45:5b:f3:50:a7:64:41:ae:49:80:f2:9b:84:6e:c6:
        ec:d2:3a:87:20:69:33:e5:72:38:83:6c:27:a3:ea:42:62:25:
        ef:65:21:4c:76:53:b6:4b:6e:c9:a7:ad:64:51:df:5f:62:e6:
        20:a1:96:9f:0d:c1:88:69:31:cc:58:b3:cc:34:89:ae:38:0e:
        4c:c4:86:bc:a3:9e:41:3a:4e:28:fd:cc:dc:5f:bb:70:08:41:
        f5:84:79:83:7a:dc:43:ec:d8:c4:98:30:89:18:c3:b3:57:8f:
        9a:a9:40:30:14:4a:7b:28
-----BEGIN CERTIFICATE-----
MIIFSjCCAzKgAwIBAgIEEkgWSTANBgkqhkiG9w0BAQsFADAnMSUwIwYDVQQDDBxT
Uks0X3NoYTI1Nl80MDk2XzY1NTM3X3YzX2NhMB4XDTIzMTEwNjExMjY1N1oXDTQz
MTEwMTExMjY1N1owKjEoMCYGA1UEAwwfSU1HNF8xX3NoYTI1Nl80MDk2XzY1NTM3
X3YzX3VzcjCCAiIwDQYJKoZIhvcNAQEBBQADggIPADCCAgoCggIBAKiBHqBPpZVW
db1Xw2GxAbd4DH1xV3RgL8WK+Y+Lx//Pz/HYi4/Q1QzJ2Sc7Sf6UWH+tt6fa34z6
HguyiNFdIUqfMv0Nn6GBviYtQQuoBroCoGLuNJe2TXWnuUiUyEMr9NtEgwZwcsHL
uk5Qs0omDk8QfUmFN6ggKRWHFrLPFmYbGjFNyQzcf9z0SUhUYAqTbrziyxIFzpGt
iL8aj9bzzRX1PGvYxtGLSc+auIB1KHIl7zDbHsapZkNfS6JgWXv0n3Z9zgg1Bkhx
WsJXbZh7F7bpt/gTADi9hVOBGBT1bqYzTbD5bi4jqDi9glzzmPoBGa6wvVkGaqnk
1xGAeLbbIeJSASSR+XmtSGCfVzRhfA/fRaFYidgsO3l/K8J/TvfhumiFyMPtRbrj
zdl4PoTirERajcp71ksFirPLAo4I1wf9URPWPQpOiSnuO6L3f1JmATcZ0sm+vmD0
4d7XY93URcQzi7tQkhZGC7WzBTkxpkPPKzEOZtkIEohLWsLCP6BT3raKCmo+iXWP
56OjkTRNXIRKuyuLdnJfWU6apipdWQOLjv0pwMbqPwhPRLD2qi3m+EqgDuMXOGac
03uA+lpB6O16wGL1Zj+dHVTI5t9NaojZbxjQnYtoHbWAwSn1N/nHTkSznqZa/4VZ
Ly1ukmkSmDu85Xe7x112kfVALsXfxpkBAgMBAAGjezB5MAkGA1UdEwQCMAAwLAYJ
YIZIAYb4QgENBB8WHU9wZW5TU0wgR2VuZXJhdGVkIENlcnRpZmljYXRlMB0GA1Ud
DgQWBBSSUYKS5DN9WW9Te/q/1wPPTG2MkDAfBgNVHSMEGDAWgBRMLP4d3iHlqFuZ
6yMtZUB+3TNGkzANBgkqhkiG9w0BAQsFAAOCAgEAFt+US1YpESmgK1BCze2kyBLi
pNzv+LBG7ieFdUIit8+y8g9N21zCa9LtN91iAJbgbUVtX3QV4Bt5UnrjPtYlAo5/
QFdLgnVMAjWp8Mjlx+kw33H0QHf4tZ1hPcVwlwytXSm23UUpY+vn1zQBOQ47gN3R
L/VFDxAfULfinJVePKXw/OtgbwvCvaWhGWqz/e7ioP7EJc727ZXN6Qbrz0ogvS6V
pmggKfbnI25CPfkOyxFANTWywN5CgOtfoS4jrtxtXFPtZGJBtv1ueA9qOc/HKHMp
4lscDggUqBDKXVSGLZNqV6idXD6j7gmdv7qG1VLRISjxV6UswpvAuMzojgXP52Kb
Ebmkia3MaIwq91iQuealZLBzx4/TPZXsimjfIwYBuEvSrwQpF90CyAhQlFUYXO7c
fzf/0oa5g4kb/roVADt6ZjL1D04Ipovk+EwG+fkX/4z64+shUOHgIX3Wsxxg/4Dr
R6TOnQsZOQLNe9XcuQdW77E7JHb48DNp13L9vWWb8li6LCTryJu99sWkphy8RVvz
UKdkQa5JgPKbhG7G7NI6hyBpM+VyOINsJ6PqQmIl72UhTHZTtktuyaetZFHfX2Lm
IKGWnw3BiGkxzFizzDSJrjgOTMSGvKOeQTpOKP3M3F+7cAhB9YR5g3rcQ+zYxJgw
iRjDs1ePmqlAMBRKeyg=
-----END CERTIFICATE-----
