Certificate:
    Data:
        Version: 3 (0x2)
        Serial Number: 306714177 (0x12481641)
        Signature Algorithm: sha256WithRSAEncryption
        Issuer: CN=CA1_sha256_4096_65537_v3_ca
        Validity
            Not Before: Nov  6 11:26:44 2023 GMT
            Not After : Nov  1 11:26:44 2043 GMT
        Subject: CN=SRK2_sha256_4096_65537_v3_ca
        Subject Public Key Info:
            Public Key Algorithm: rsaEncryption
                Public-Key: (4096 bit)
                Modulus:
                    00:bb:de:d6:cf:b8:76:0f:0e:ab:fb:ec:c1:b1:13:
                    45:02:75:a9:87:ea:9e:db:bc:53:47:9c:9f:ba:6a:
                    fc:0c:d2:00:eb:44:13:a6:dd:c2:f7:a8:5c:a7:d9:
                    b5:54:22:99:13:38:ea:7a:ef:24:c0:48:59:a8:9f:
                    1d:ae:65:35:92:bb:11:c1:8f:cf:ab:9a:79:7b:55:
                    b4:bd:f2:3f:cc:53:c2:44:ce:be:e3:61:43:93:67:
                    b9:63:9e:eb:39:64:c2:66:4d:f0:7d:ed:b3:e1:1d:
                    d0:03:b9:19:e9:82:64:a5:34:90:97:8a:46:9b:d1:
                    55:b2:dd:39:c8:54:38:60:bf:92:f7:73:d1:cf:6c:
                    75:b0:e2:f2:57:38:24:9a:35:eb:20:be:6d:8a:ba:
                    c4:98:04:04:37:0f:7a:db:2c:55:9b:93:d3:e9:c8:
                    06:0d:03:a3:70:ee:8d:f3:30:ce:02:fd:a4:55:35:
                    f8:23:c6:85:30:13:31:0c:76:66:bf:97:f5:eb:e1:
                    ed:e6:b7:a8:be:6c:4d:f7:ea:b8:fc:38:8f:31:91:
                    aa:0b:1f:8b:8c:5e:45:de:37:30:c1:18:69:dc:ad:
                    fd:ce:bc:5b:63:87:44:8e:20:2d:43:da:7c:43:5d:
                    a0:d9:65:a2:bc:f9:bd:de:3e:b0:51:1d:7b:ca:75:
                    1e:36:ae:b0:81:c3:1c:0e:bd:01:90:83:eb:34:5f:
                    75:cd:cd:51:21:20:e3:70:44:14:86:39:c2:f6:5d:
                    52:81:ad:01:01:19:3e:71:26:62:cd:96:28:e6:1c:
                    84:9b:81:12:f2:ec:92:72:35:a0:c8:51:31:19:ad:
                    5a:9a:d2:f0:56:ca:c5:13:a3:08:d7:91:5a:f8:39:
                    72:71:40:c9:9a:fb:24:68:89:9f:00:f9:6a:fb:c6:
                    61:fa:06:35:ae:42:85:fc:2e:52:d4:87:fa:f9:54:
                    ad:3c:83:e4:44:14:de:05:68:b7:d9:a3:43:57:65:
                    90:6b:b7:93:95:4a:d0:ae:1e:bc:d7:07:49:88:0a:
                    1d:c9:e7:5d:78:d7:ad:b1:8d:2f:6f:66:a3:7d:e3:
                    95:21:dd:fd:ed:43:77:1c:c3:dc:e4:d1:8d:5c:89:
                    63:20:aa:50:0a:e6:68:5e:72:d5:f6:29:62:8a:00:
                    1f:7b:fc:23:55:f0:61:bd:d4:a8:67:ad:4e:20:b3:
                    b1:cb:e9:ff:e7:ef:21:32:bf:1a:2c:d8:f1:c2:2e:
                    72:31:c0:1e:2b:32:88:7d:a9:4f:19:2f:e3:73:67:
                    5b:df:89:b4:a6:ef:9e:bf:7d:e3:4c:8b:8d:82:86:
                    15:da:49:33:01:c2:78:de:5e:69:be:44:2d:1a:af:
                    1b:9a:a1
                Exponent: 65537 (0x10001)
        X509v3 extensions:
            X509v3 Subject Key Identifier: 
                83:3C:B3:FA:F1:37:C0:DD:33:3B:03:CB:82:2C:23:60:B0:97:EE:D9
            X509v3 Authority Key Identifier: 
                keyid:2F:08:F9:7D:FC:8D:28:38:51:CB:92:B1:29:F1:A7:3D:C9:A3:6E:2F
                DirName:/CN=CA1_sha256_4096_65537_v3_ca
                serial:69:9B:DF:99:0B:09:8A:5B:61:0D:2E:DE:F8:1C:A4:42:70:96:71:B5
            X509v3 Basic Constraints: critical
                CA:TRUE
            X509v3 Key Usage: 
                Certificate Sign
    Signature Algorithm: sha256WithRSAEncryption
    Signature Value:
        ad:e4:b7:41:ca:18:8d:d5:38:45:07:44:9e:e1:57:bf:8e:10:
        91:47:e8:27:88:52:b9:5f:90:96:fd:fd:3f:66:2d:5b:55:84:
        61:ab:e9:40:67:c2:88:07:60:14:fa:63:99:c5:88:11:b0:73:
        00:68:03:c7:34:1a:d9:d9:90:ed:e6:2b:83:5d:e8:14:5a:0c:
        14:21:f1:1b:05:f1:87:58:5b:09:7f:93:37:1c:a0:51:d9:87:
        50:e8:2b:18:a8:6e:f3:1b:4a:58:28:fb:e9:6a:27:44:d2:d4:
        54:22:59:45:48:07:ef:63:e5:51:bc:fd:ce:ce:bf:32:c7:bb:
        0c:a8:7a:2b:9c:d6:ea:6c:9f:2e:7e:89:1e:35:74:1a:22:62:
        63:5a:b0:5d:8c:93:a0:2e:4e:ff:a6:3d:99:f3:22:0e:d7:79:
        04:03:db:08:f8:6c:7b:96:8e:59:3a:88:25:c8:4b:be:72:39:
        5b:06:3a:b0:c8:48:3d:23:39:40:41:92:a8:80:00:d0:75:2d:
        2a:0a:ff:ed:03:1b:a2:e7:61:4f:9e:05:0f:99:df:41:69:f7:
        59:29:6c:c8:3b:d2:9c:2b:31:35:fa:94:1f:2c:c3:30:87:8a:
        b3:22:d6:c5:8a:2c:aa:4d:70:3b:92:cd:ec:a1:73:4d:1b:1b:
        76:9e:e2:81:c1:dc:5e:72:da:f6:70:46:89:ee:5b:02:7e:d0:
        f8:d4:b8:66:55:a5:3f:44:ab:6a:56:0f:e4:9d:8c:8e:46:6b:
        ed:f8:bf:3b:99:b7:a1:d5:d3:be:e1:fb:9d:07:2f:b2:96:28:
        0c:83:79:bc:e6:a9:10:d7:de:c7:5c:9c:1e:ec:40:74:c6:ff:
        41:44:17:fd:41:56:3b:51:8d:4a:9c:0f:0c:63:ea:2d:91:2e:
        52:69:ef:cf:59:3a:cf:aa:bf:0c:c0:35:dc:2b:68:4e:48:6a:
        fa:b3:3e:f3:21:9d:de:79:03:b0:5d:49:f5:49:67:76:dc:f5:
        53:14:4a:cd:a7:c6:82:3e:3c:be:5c:ae:80:78:5f:62:b7:4d:
        52:9c:7b:4e:59:06:51:ec:76:c1:80:d1:ea:0a:c5:94:50:96:
        85:25:50:05:31:48:63:ec:51:db:a5:4f:71:5d:0b:6c:5b:ad:
        34:fe:f8:53:fa:70:e2:40:54:9b:62:3a:90:97:d0:4f:66:80:
        44:e2:8b:89:86:e6:e6:34:d1:ea:bc:c2:5e:ba:05:af:f9:36:
        12:a2:9c:eb:aa:d9:fd:d7:83:ff:1e:75:c8:8f:c7:bb:8b:96:
        e9:48:03:cb:ef:e3:d1:54:09:fd:1b:98:18:8e:45:50:16:ed:
        2d:46:ee:2d:99:3a:4d:76
-----BEGIN CERTIFICATE-----
MIIFbzCCA1egAwIBAgIEEkgWQTANBgkqhkiG9w0BAQsFADAmMSQwIgYDVQQDFBtD
QTFfc2hhMjU2XzQwOTZfNjU1MzdfdjNfY2EwHhcNMjMxMTA2MTEyNjQ0WhcNNDMx
MTAxMTEyNjQ0WjAnMSUwIwYDVQQDDBxTUksyX3NoYTI1Nl80MDk2XzY1NTM3X3Yz
X2NhMIICIjANBgkqhkiG9w0BAQEFAAOCAg8AMIICCgKCAgEAu97Wz7h2Dw6r++zB
sRNFAnWph+qe27xTR5yfumr8DNIA60QTpt3C96hcp9m1VCKZEzjqeu8kwEhZqJ8d
rmU1krsRwY/Pq5p5e1W0vfI/zFPCRM6+42FDk2e5Y57rOWTCZk3wfe2z4R3QA7kZ
6YJkpTSQl4pGm9FVst05yFQ4YL+S93PRz2x1sOLyVzgkmjXrIL5tirrEmAQENw96
2yxVm5PT6cgGDQOjcO6N8zDOAv2kVTX4I8aFMBMxDHZmv5f16+Ht5reovmxN9+q4
/DiPMZGqCx+LjF5F3jcwwRhp3K39zrxbY4dEjiAtQ9p8Q12g2WWivPm93j6wUR17
ynUeNq6wgcMcDr0BkIPrNF91zc1RISDjcEQUhjnC9l1Sga0BARk+cSZizZYo5hyE
m4ES8uyScjWgyFExGa1amtLwVsrFE6MI15Fa+DlycUDJmvskaImfAPlq+8Zh+gY1
rkKF/C5S1If6+VStPIPkRBTeBWi32aNDV2WQa7eTlUrQrh681wdJiAodyeddeNet
sY0vb2ajfeOVId397UN3HMPc5NGNXIljIKpQCuZoXnLV9iliigAfe/wjVfBhvdSo
Z61OILOxy+n/5+8hMr8aLNjxwi5yMcAeKzKIfalPGS/jc2db34m0pu+ev33jTIuN
goYV2kkzAcJ43l5pvkQtGq8bmqECAwEAAaOBozCBoDAdBgNVHQ4EFgQUgzyz+vE3
wN0zOwPLgiwjYLCX7tkwYQYDVR0jBFowWIAULwj5ffyNKDhRy5KxKfGnPcmjbi+h
KqQoMCYxJDAiBgNVBAMUG0NBMV9zaGEyNTZfNDA5Nl82NTUzN192M19jYYIUaZvf
mQsJilthDS7e+BykQnCWcbUwDwYDVR0TAQH/BAUwAwEB/zALBgNVHQ8EBAMCAgQw
DQYJKoZIhvcNAQELBQADggIBAK3kt0HKGI3VOEUHRJ7hV7+OEJFH6CeIUrlfkJb9
/T9mLVtVhGGr6UBnwogHYBT6Y5nFiBGwcwBoA8c0GtnZkO3mK4Nd6BRaDBQh8RsF
8YdYWwl/kzccoFHZh1DoKxiobvMbSlgo++lqJ0TS1FQiWUVIB+9j5VG8/c7OvzLH
uwyoeiuc1upsny5+iR41dBoiYmNasF2Mk6AuTv+mPZnzIg7XeQQD2wj4bHuWjlk6
iCXIS75yOVsGOrDISD0jOUBBkqiAANB1LSoK/+0DG6LnYU+eBQ+Z30Fp91kpbMg7
0pwrMTX6lB8swzCHirMi1sWKLKpNcDuSzeyhc00bG3ae4oHB3F5y2vZwRonuWwJ+
0PjUuGZVpT9Eq2pWD+SdjI5Ga+34vzuZt6HV077h+50HL7KWKAyDebzmqRDX3sdc
nB7sQHTG/0FEF/1BVjtRjUqcDwxj6i2RLlJp789ZOs+qvwzANdwraE5IavqzPvMh
nd55A7BdSfVJZ3bc9VMUSs2nxoI+PL5croB4X2K3TVKce05ZBlHsdsGA0eoKxZRQ
loUlUAUxSGPsUdulT3FdC2xbrTT++FP6cOJAVJtiOpCX0E9mgETii4mG5uY00eq8
wl66Ba/5NhKinOuq2f3Xg/8edciPx7uLlulIA8vv49FUCf0bmBiORVAW7S1G7i2Z
Ok12
-----END CERTIFICATE-----
