Certificate:
    Data:
        Version: 3 (0x2)
        Serial Number: 306714183 (0x12481647)
        Signature Algorithm: sha256WithRSAEncryption
        Issuer: CN=CA1_sha256_4096_65537_v3_ca
        Validity
            Not Before: Nov  6 11:26:55 2023 GMT
            Not After : Nov  1 11:26:55 2043 GMT
        Subject: CN=SRK4_sha256_4096_65537_v3_ca
        Subject Public Key Info:
            Public Key Algorithm: rsaEncryption
                Public-Key: (4096 bit)
                Modulus:
                    00:b7:79:fa:74:b6:1d:f1:88:3d:cf:1d:1e:5c:ad:
                    1e:b4:fc:01:4a:a1:4d:df:0d:f0:e6:8c:51:63:d6:
                    18:3d:03:45:75:10:7b:85:c8:30:da:00:ff:7d:c1:
                    cb:a1:71:ed:dc:5f:82:80:76:c1:cf:74:df:ba:3a:
                    f1:7c:00:69:26:bd:95:32:1e:50:df:5a:f2:bb:89:
                    d0:f7:37:cb:50:00:65:38:93:8f:7e:c6:ba:6e:99:
                    30:82:99:d5:c3:9e:0c:e3:6e:ef:bb:d6:a1:3c:f5:
                    f6:bb:37:04:b0:28:f6:9c:5c:4d:dd:81:e3:ee:80:
                    df:4a:4b:88:3a:42:d1:d1:63:fd:76:aa:bf:14:a1:
                    b6:ff:6e:ac:58:61:f3:61:e1:cf:b4:e2:a3:86:d9:
                    74:d9:1a:99:86:ea:5c:06:ee:41:25:46:67:3c:96:
                    66:93:2b:6d:d2:d3:db:3c:f5:fb:87:df:26:a9:d8:
                    49:c9:12:e6:6a:dc:34:28:b3:30:84:4a:7e:a1:fb:
                    45:db:71:90:6b:b4:02:58:9b:88:c1:f1:29:66:b0:
                    69:8b:ac:df:29:7b:52:fb:80:b0:04:ae:48:a2:61:
                    16:0c:d7:3e:47:89:5d:18:c7:af:9c:e9:7d:75:5e:
                    e5:2f:84:a2:a7:61:7d:50:30:fc:70:f7:cf:fd:78:
                    c7:1e:aa:9c:4f:5d:24:95:5a:5a:ed:91:18:68:77:
                    71:b4:b6:11:a0:2e:7d:a0:2c:a3:f8:9d:d8:fd:ac:
                    fe:f7:5b:d5:bc:67:4d:dd:a8:34:60:08:c0:e4:93:
                    d6:73:06:de:a8:08:82:b4:b4:7b:7a:33:5f:3e:76:
                    23:63:cf:0d:c4:07:35:9f:71:ec:66:51:50:c4:bb:
                    49:7d:ce:8d:1e:fa:50:7c:bc:fa:57:62:6f:9c:5e:
                    ae:6d:f6:3f:34:3f:3b:88:70:be:12:ef:5e:8f:81:
                    db:13:8f:77:00:f7:f7:f9:d3:6f:c6:27:ed:a5:82:
                    0d:4b:93:69:91:60:2b:fd:63:5a:04:7a:08:8c:8b:
                    1a:44:c1:4b:07:e1:ce:44:b9:4c:94:2a:aa:33:62:
                    62:fb:de:7a:2a:8c:19:c4:77:27:02:34:86:2e:ec:
                    21:a3:e3:61:6d:61:a7:ac:92:a0:21:5f:ad:ef:5e:
                    79:df:44:68:db:a8:1b:a4:59:24:3a:85:18:9b:19:
                    a7:52:34:13:11:92:0c:82:09:15:e9:44:af:b0:76:
                    5a:7f:9c:f4:c8:95:71:db:4c:84:07:dd:1a:ca:af:
                    27:2b:96:ed:ff:50:43:eb:3f:55:bf:45:a3:79:90:
                    bd:2b:95:4a:fe:38:be:a9:ec:33:07:fe:b8:0d:80:
                    4c:1a:f9
                Exponent: 65537 (0x10001)
        X509v3 extensions:
            X509v3 Subject Key Identifier: 
                4C:2C:FE:1D:DE:21:E5:A8:5B:99:EB:23:2D:65:40:7E:DD:33:46:93
            X509v3 Authority Key Identifier: 
                keyid:2F:08:F9:7D:FC:8D:28:38:51:CB:92:B1:29:F1:A7:3D:C9:A3:6E:2F
                DirName:/CN=CA1_sha256_4096_65537_v3_ca
                serial:69:9B:DF:99:0B:09:8A:5B:61:0D:2E:DE:F8:1C:A4:42:70:96:71:B5
            X509v3 Basic Constraints: critical
                CA:TRUE
            X509v3 Key Usage: 
                Certificate Sign
    Signature Algorithm: sha256WithRSAEncryption
    Signature Value:
        85:08:f2:38:c4:d4:e1:d2:e6:d9:64:7a:84:18:12:ff:3d:4e:
        33:8d:85:67:aa:1f:0a:f2:08:6e:5d:0b:8f:a5:b4:f9:cb:b9:
        02:21:3c:bb:fa:db:ab:86:9f:81:73:aa:9a:6f:09:b7:a8:88:
        8b:cf:a8:c3:ee:b8:7b:60:4a:dc:63:23:75:c9:9b:92:f9:bc:
        f1:3e:c8:17:40:ce:53:cd:2d:bb:ad:a2:94:03:e9:5d:88:03:
        c8:35:0e:d6:23:4e:5e:6f:cf:da:e3:93:34:49:ea:78:ef:69:
        37:ae:be:09:52:d4:20:ea:47:21:71:45:a8:40:fb:f2:4b:d8:
        33:25:a1:93:9b:0d:01:ac:60:d8:e0:10:c2:4c:ca:4e:64:e9:
        f5:32:f8:55:5b:59:0b:42:5c:e8:73:bd:aa:e3:27:b6:5e:c0:
        01:95:52:7c:03:5c:e7:b1:5f:5c:77:d7:73:9f:99:5e:51:42:
        bd:2b:98:4f:a6:d4:86:4e:b1:6b:35:42:c8:d5:ab:61:df:1a:
        2f:4e:6b:22:98:68:c8:91:42:13:88:2d:99:5f:2b:d8:e3:72:
        58:7b:d6:1f:59:08:1a:42:af:cb:45:7e:af:ab:ec:1f:02:79:
        b9:52:dd:e8:9c:73:38:18:57:dc:98:df:f9:03:4e:25:73:b2:
        74:4e:0a:04:8b:67:86:39:6e:af:60:b2:0f:a1:06:fc:a5:03:
        d4:a1:91:7a:fb:bd:d4:2c:bd:7b:aa:f3:4e:ca:86:d0:00:c9:
        d6:27:ad:a9:9e:cb:d8:9f:05:1e:2b:8c:84:cc:72:39:6e:01:
        49:89:50:05:c0:b0:89:8e:03:49:32:54:0f:ea:30:47:bf:bd:
        33:ed:64:49:47:1c:8c:d3:a4:67:6c:ba:d7:ee:ba:4d:82:be:
        3c:9c:bb:73:73:c0:e5:07:f3:c6:c5:dc:6e:99:65:95:3e:40:
        73:e4:0d:0a:0f:2b:6c:92:c7:1d:4e:25:ea:b1:5c:22:5c:5d:
        a8:62:85:7e:bc:95:da:77:65:f9:ca:9f:88:65:c3:f9:e0:71:
        72:79:49:ec:6d:20:53:41:61:56:6c:bd:1a:d3:c1:15:05:57:
        41:96:de:30:20:3f:0c:63:07:50:3a:57:7d:37:fd:cf:78:43:
        45:ea:eb:95:51:30:a4:29:4b:b6:76:3b:95:30:31:e5:f0:77:
        02:5c:65:64:e7:da:2b:88:b7:80:2f:f1:f4:68:59:e2:e9:4f:
        a0:43:d6:5e:a9:9a:a4:9f:a9:19:16:52:fe:5f:bf:c3:56:89:
        c0:e0:12:8d:82:dc:d0:0a:46:88:58:d2:28:8f:8a:20:05:34:
        b1:8b:26:a8:fb:f1:4c:10
-----BEGIN CERTIFICATE-----
MIIFbzCCA1egAwIBAgIEEkgWRzANBgkqhkiG9w0BAQsFADAmMSQwIgYDVQQDFBtD
QTFfc2hhMjU2XzQwOTZfNjU1MzdfdjNfY2EwHhcNMjMxMTA2MTEyNjU1WhcNNDMx
MTAxMTEyNjU1WjAnMSUwIwYDVQQDDBxTUks0X3NoYTI1Nl80MDk2XzY1NTM3X3Yz
X2NhMIICIjANBgkqhkiG9w0BAQEFAAOCAg8AMIICCgKCAgEAt3n6dLYd8Yg9zx0e
XK0etPwBSqFN3w3w5oxRY9YYPQNFdRB7hcgw2gD/fcHLoXHt3F+CgHbBz3Tfujrx
fABpJr2VMh5Q31ryu4nQ9zfLUABlOJOPfsa6bpkwgpnVw54M427vu9ahPPX2uzcE
sCj2nFxN3YHj7oDfSkuIOkLR0WP9dqq/FKG2/26sWGHzYeHPtOKjhtl02RqZhupc
Bu5BJUZnPJZmkytt0tPbPPX7h98mqdhJyRLmatw0KLMwhEp+oftF23GQa7QCWJuI
wfEpZrBpi6zfKXtS+4CwBK5IomEWDNc+R4ldGMevnOl9dV7lL4Sip2F9UDD8cPfP
/XjHHqqcT10klVpa7ZEYaHdxtLYRoC59oCyj+J3Y/az+91vVvGdN3ag0YAjA5JPW
cwbeqAiCtLR7ejNfPnYjY88NxAc1n3HsZlFQxLtJfc6NHvpQfLz6V2JvnF6ubfY/
ND87iHC+Eu9ej4HbE493APf3+dNvxiftpYINS5NpkWAr/WNaBHoIjIsaRMFLB+HO
RLlMlCqqM2Ji+956KowZxHcnAjSGLuwho+NhbWGnrJKgIV+t715530Ro26gbpFkk
OoUYmxmnUjQTEZIMggkV6USvsHZaf5z0yJVx20yEB90ayq8nK5bt/1BD6z9Vv0Wj
eZC9K5VK/ji+qewzB/64DYBMGvkCAwEAAaOBozCBoDAdBgNVHQ4EFgQUTCz+Hd4h
5ahbmesjLWVAft0zRpMwYQYDVR0jBFowWIAULwj5ffyNKDhRy5KxKfGnPcmjbi+h
KqQoMCYxJDAiBgNVBAMUG0NBMV9zaGEyNTZfNDA5Nl82NTUzN192M19jYYIUaZvf
mQsJilthDS7e+BykQnCWcbUwDwYDVR0TAQH/BAUwAwEB/zALBgNVHQ8EBAMCAgQw
DQYJKoZIhvcNAQELBQADggIBAIUI8jjE1OHS5tlkeoQYEv89TjONhWeqHwryCG5d
C4+ltPnLuQIhPLv626uGn4FzqppvCbeoiIvPqMPuuHtgStxjI3XJm5L5vPE+yBdA
zlPNLbutopQD6V2IA8g1DtYjTl5vz9rjkzRJ6njvaTeuvglS1CDqRyFxRahA+/JL
2DMloZObDQGsYNjgEMJMyk5k6fUy+FVbWQtCXOhzvarjJ7ZewAGVUnwDXOexX1x3
13OfmV5RQr0rmE+m1IZOsWs1QsjVq2HfGi9OayKYaMiRQhOILZlfK9jjclh71h9Z
CBpCr8tFfq+r7B8CeblS3eicczgYV9yY3/kDTiVzsnROCgSLZ4Y5bq9gsg+hBvyl
A9ShkXr7vdQsvXuq807KhtAAydYnramey9ifBR4rjITMcjluAUmJUAXAsImOA0ky
VA/qMEe/vTPtZElHHIzTpGdsutfuuk2Cvjycu3NzwOUH88bF3G6ZZZU+QHPkDQoP
K2ySxx1OJeqxXCJcXahihX68ldp3ZfnKn4hlw/ngcXJ5SextIFNBYVZsvRrTwRUF
V0GW3jAgPwxjB1A6V303/c94Q0Xq65VRMKQpS7Z2O5UwMeXwdwJcZWTn2iuIt4Av
8fRoWeLpT6BD1l6pmqSfqRkWUv5fv8NWicDgEo2C3NAKRohY0iiPiiAFNLGLJqj7
8UwQ
-----END CERTIFICATE-----
